   1               		.file	"main.c"
   2               	__SREG__ = 0x3f
   3               	__SP_H__ = 0x3e
   4               	__SP_L__ = 0x3d
   5               	__CCP__  = 0x34
   6               	__tmp_reg__ = 0
   7               	__zero_reg__ = 1
  15               	.Ltext0:
  16               	.global	i2cSetBitrate
  18               	i2cSetBitrate:
  19               	.LFB4:
  20               	.LM1:
  21               	.LVL0:
  22               	/* prologue: function */
  23               	/* frame size = 0 */
  24 0000 BC01      		movw r22,r24
  25               	.LM2:
  26 0002 8091 B900 		lds r24,185
  27               	.LVL1:
  28 0006 8E7F      		andi r24,lo8(-2)
  29 0008 8093 B900 		sts 185,r24
  30               	.LM3:
  31 000c 8091 B900 		lds r24,185
  32 0010 8D7F      		andi r24,lo8(-3)
  33 0012 8093 B900 		sts 185,r24
  34               	.LM4:
  35 0016 80ED      		ldi r24,lo8(2000)
  36 0018 97E0      		ldi r25,hi8(2000)
  37 001a 0E94 0000 		call __udivmodhi4
  38               	.LVL2:
  39               	.LM5:
  40 001e 6031      		cpi r22,lo8(16)
  41               	.LVL3:
  42 0020 00F0      		brlo .L2
  43               	.LM6:
  44 0022 862F      		mov r24,r22
  45 0024 90E0      		ldi r25,lo8(0)
  46               	.LVL4:
  47 0026 4097      		sbiw r24,16
  48               	.LVL5:
  49 0028 9595      		asr r25
  50 002a 8795      		ror r24
  51               	.LVL6:
  52 002c 682F      		mov r22,r24
  53               	.LVL7:
  54               	.L2:
  55               	.LM7:
  56 002e 6093 B800 		sts 184,r22
  57               	/* epilogue start */
  58               	.LM8:
  59 0032 0895      		ret
  60               	.LFE4:
  62               	.global	i2cInit
  64               	i2cInit:
  65               	.LFB3:
  66               	.LM9:
  67               	/* prologue: function */
  68               	/* frame size = 0 */
  69               	.LM10:
  70 0034 88E2      		ldi r24,lo8(40)
  71 0036 90E0      		ldi r25,hi8(40)
  72 0038 0E94 0000 		call i2cSetBitrate
  73               	.LM11:
  74 003c ECEB      		ldi r30,lo8(188)
  75 003e F0E0      		ldi r31,hi8(188)
  76 0040 8081      		ld r24,Z
  77 0042 8460      		ori r24,lo8(4)
  78 0044 8083      		st Z,r24
  79               	/* epilogue start */
  80               	.LM12:
  81 0046 0895      		ret
  82               	.LFE3:
  84               	.global	i2cSendStart
  86               	i2cSendStart:
  87               	.LFB5:
  88               	.LM13:
  89               	/* prologue: function */
  90               	/* frame size = 0 */
  91               	.LM14:
  92 0048 3C9A      		sbi 39-32,4
  93               	.LM15:
  94 004a 84EA      		ldi r24,lo8(-92)
  95 004c 8093 BC00 		sts 188,r24
  96               	/* epilogue start */
  97               	.LM16:
  98 0050 0895      		ret
  99               	.LFE5:
 101               	.global	i2cSendStop
 103               	i2cSendStop:
 104               	.LFB6:
 105               	.LM17:
 106               	/* prologue: function */
 107               	/* frame size = 0 */
 108               	.LM18:
 109 0052 84E9      		ldi r24,lo8(-108)
 110 0054 8093 BC00 		sts 188,r24
 111               	/* epilogue start */
 112               	.LM19:
 113 0058 0895      		ret
 114               	.LFE6:
 116               	.global	i2cWaitForComplete
 118               	i2cWaitForComplete:
 119               	.LFB7:
 120               	.LM20:
 121               	/* prologue: function */
 122               	/* frame size = 0 */
 123               	.LM21:
 124 005a 20E0      		ldi r18,lo8(0)
 125 005c 30E0      		ldi r19,hi8(0)
 126               	.LVL8:
 127 005e 00C0      		rjmp .L11
 128               	.L13:
 129               	.LM22:
 130 0060 2F5F      		subi r18,lo8(-(1))
 131 0062 3F4F      		sbci r19,hi8(-(1))
 132               	.L11:
 133               	.LM23:
 134 0064 8091 BC00 		lds r24,188
 135 0068 87FD      		sbrc r24,7
 136 006a 00C0      		rjmp .L14
 137 006c 2A35      		cpi r18,90
 138 006e 3105      		cpc r19,__zero_reg__
 139 0070 01F4      		brne .L13
 140               	.L14:
 141 0072 0895      		ret
 142               	.LFE7:
 144               	.global	i2cReceiveByte
 146               	i2cReceiveByte:
 147               	.LFB9:
 148               	.LM24:
 149               	.LVL9:
 150               	/* prologue: function */
 151               	/* frame size = 0 */
 152               	.LM25:
 153 0074 8823      		tst r24
 154 0076 01F0      		breq .L16
 155               	.LM26:
 156 0078 8091 BC00 		lds r24,188
 157               	.LVL10:
 158 007c 8F70      		andi r24,lo8(15)
 159 007e 806C      		ori r24,lo8(-64)
 160 0080 00C0      		rjmp .L19
 161               	.LVL11:
 162               	.L16:
 163               	.LM27:
 164 0082 8091 BC00 		lds r24,188
 165               	.LVL12:
 166 0086 8F70      		andi r24,lo8(15)
 167 0088 8068      		ori r24,lo8(-128)
 168               	.L19:
 169 008a 8093 BC00 		sts 188,r24
 170 008e 0895      		ret
 171               	.LFE9:
 173               	.global	i2cGetReceivedByte
 175               	i2cGetReceivedByte:
 176               	.LFB10:
 177               	.LM28:
 178               	/* prologue: function */
 179               	/* frame size = 0 */
 180               	.LM29:
 181 0090 8091 BB00 		lds r24,187
 182               	/* epilogue start */
 183               	.LM30:
 184 0094 0895      		ret
 185               	.LFE10:
 187               	.global	i2cGetStatus
 189               	i2cGetStatus:
 190               	.LFB11:
 191               	.LM31:
 192               	/* prologue: function */
 193               	/* frame size = 0 */
 194               	.LM32:
 195 0096 8091 B900 		lds r24,185
 196               	/* epilogue start */
 197               	.LM33:
 198 009a 0895      		ret
 199               	.LFE11:
 201               	.global	delay_ms
 203               	delay_ms:
 204               	.LFB12:
 205               	.LM34:
 206               	.LVL13:
 207               	/* prologue: function */
 208               	/* frame size = 0 */
 209 009c 00C0      		rjmp .L25
 210               	.LVL14:
 211               	.L27:
 212               	.LM35:
 213 009e 20E0      		ldi r18,lo8(0)
 214               	.L26:
 215               	.LM36:
 216               	/* #APP */
 217               	 ;  186 "i2c.h" 1
 218 00a0 0000      		nop
 219               	 ;  0 "" 2
 220               	 ;  186 "i2c.h" 1
 221 00a2 0000      		nop
 222               	 ;  0 "" 2
 223               	 ;  186 "i2c.h" 1
 224 00a4 0000      		nop
 225               	 ;  0 "" 2
 226               	 ;  186 "i2c.h" 1
 227 00a6 0000      		nop
 228               	 ;  0 "" 2
 229               	 ;  186 "i2c.h" 1
 230 00a8 0000      		nop
 231               	 ;  0 "" 2
 232               	 ;  186 "i2c.h" 1
 233 00aa 0000      		nop
 234               	 ;  0 "" 2
 235               	.LM37:
 236               	/* #NOAPP */
 237 00ac 2F5F      		subi r18,lo8(-(1))
 238 00ae 2A35      		cpi r18,lo8(90)
 239 00b0 01F4      		brne .L26
 240               	.LM38:
 241 00b2 0197      		sbiw r24,1
 242               	.LVL15:
 243               	.L25:
 244 00b4 0097      		sbiw r24,0
 245 00b6 01F4      		brne .L27
 246               	/* epilogue start */
 247               	.LM39:
 248 00b8 0895      		ret
 249               	.LFE12:
 251               	.global	i2cSendByte
 253               	i2cSendByte:
 254               	.LFB8:
 255               	.LM40:
 256               	.LVL16:
 257 00ba 1F93      		push r17
 258               	/* prologue: function */
 259               	/* frame size = 0 */
 260 00bc 182F      		mov r17,r24
 261               	.LM41:
 262 00be 81E0      		ldi r24,lo8(1)
 263 00c0 90E0      		ldi r25,hi8(1)
 264               	.LVL17:
 265 00c2 0E94 0000 		call delay_ms
 266               	.LM42:
 267 00c6 3C9A      		sbi 39-32,4
 268               	.LM43:
 269 00c8 1093 BB00 		sts 187,r17
 270               	.LM44:
 271 00cc 84E8      		ldi r24,lo8(-124)
 272 00ce 8093 BC00 		sts 188,r24
 273               	/* epilogue start */
 274               	.LM45:
 275 00d2 1F91      		pop r17
 276               	.LVL18:
 277 00d4 0895      		ret
 278               	.LFE8:
 280               	.global	accelerometer_init
 282               	accelerometer_init:
 283               	.LFB14:
 284               	.LM46:
 285               	/* prologue: function */
 286               	/* frame size = 0 */
 287               	.LBB562:
 288               	.LBB563:
 289               	.LM47:
 290 00d6 3C9A      		sbi 39-32,4
 291               	.LM48:
 292 00d8 84EA      		ldi r24,lo8(-92)
 293 00da 8093 BC00 		sts 188,r24
 294 00de 20E0      		ldi r18,lo8(0)
 295 00e0 30E0      		ldi r19,hi8(0)
 296               	.LVL19:
 297 00e2 00C0      		rjmp .L33
 298               	.L35:
 299               	.LBE563:
 300               	.LBE562:
 301               	.LBB564:
 302               	.LBB565:
 303               	.LM49:
 304 00e4 2F5F      		subi r18,lo8(-(1))
 305 00e6 3F4F      		sbci r19,hi8(-(1))
 306               	.L33:
 307               	.LM50:
 308 00e8 8091 BC00 		lds r24,188
 309 00ec 87FD      		sbrc r24,7
 310 00ee 00C0      		rjmp .L34
 311 00f0 2A35      		cpi r18,90
 312 00f2 3105      		cpc r19,__zero_reg__
 313 00f4 01F4      		brne .L35
 314               	.L34:
 315               	.LBE565:
 316               	.LBE564:
 317               	.LM51:
 318 00f6 86EA      		ldi r24,lo8(-90)
 319 00f8 0E94 0000 		call i2cSendByte
 320               	.LVL20:
 321 00fc 20E0      		ldi r18,lo8(0)
 322 00fe 30E0      		ldi r19,hi8(0)
 323               	.LVL21:
 324 0100 00C0      		rjmp .L36
 325               	.L38:
 326               	.LBB566:
 327               	.LBB567:
 328               	.LM52:
 329 0102 2F5F      		subi r18,lo8(-(1))
 330 0104 3F4F      		sbci r19,hi8(-(1))
 331               	.L36:
 332               	.LM53:
 333 0106 8091 BC00 		lds r24,188
 334 010a 87FD      		sbrc r24,7
 335 010c 00C0      		rjmp .L37
 336 010e 2A35      		cpi r18,90
 337 0110 3105      		cpc r19,__zero_reg__
 338 0112 01F4      		brne .L38
 339               	.L37:
 340               	.LBE567:
 341               	.LBE566:
 342               	.LM54:
 343 0114 8DE2      		ldi r24,lo8(45)
 344 0116 0E94 0000 		call i2cSendByte
 345               	.LVL22:
 346 011a 20E0      		ldi r18,lo8(0)
 347 011c 30E0      		ldi r19,hi8(0)
 348               	.LVL23:
 349 011e 00C0      		rjmp .L39
 350               	.L41:
 351               	.LBB568:
 352               	.LBB569:
 353               	.LM55:
 354 0120 2F5F      		subi r18,lo8(-(1))
 355 0122 3F4F      		sbci r19,hi8(-(1))
 356               	.L39:
 357               	.LM56:
 358 0124 8091 BC00 		lds r24,188
 359 0128 87FD      		sbrc r24,7
 360 012a 00C0      		rjmp .L40
 361 012c 2A35      		cpi r18,90
 362 012e 3105      		cpc r19,__zero_reg__
 363 0130 01F4      		brne .L41
 364               	.L40:
 365               	.LBE569:
 366               	.LBE568:
 367               	.LM57:
 368 0132 88E0      		ldi r24,lo8(8)
 369 0134 0E94 0000 		call i2cSendByte
 370               	.LVL24:
 371 0138 20E0      		ldi r18,lo8(0)
 372 013a 30E0      		ldi r19,hi8(0)
 373               	.LVL25:
 374 013c 00C0      		rjmp .L42
 375               	.L44:
 376               	.LBB570:
 377               	.LBB571:
 378               	.LM58:
 379 013e 2F5F      		subi r18,lo8(-(1))
 380 0140 3F4F      		sbci r19,hi8(-(1))
 381               	.L42:
 382               	.LM59:
 383 0142 8091 BC00 		lds r24,188
 384 0146 87FD      		sbrc r24,7
 385 0148 00C0      		rjmp .L43
 386 014a 2A35      		cpi r18,90
 387 014c 3105      		cpc r19,__zero_reg__
 388 014e 01F4      		brne .L44
 389               	.L43:
 390               	.LBE571:
 391               	.LBE570:
 392               	.LBB572:
 393               	.LBB573:
 394               	.LM60:
 395 0150 84E9      		ldi r24,lo8(-108)
 396 0152 8093 BC00 		sts 188,r24
 397               	.LBE573:
 398               	.LBE572:
 399               	.LBB574:
 400               	.LBB575:
 401               	.LM61:
 402 0156 3C9A      		sbi 39-32,4
 403               	.LM62:
 404 0158 84EA      		ldi r24,lo8(-92)
 405 015a 8093 BC00 		sts 188,r24
 406 015e 20E0      		ldi r18,lo8(0)
 407 0160 30E0      		ldi r19,hi8(0)
 408               	.LVL26:
 409 0162 00C0      		rjmp .L45
 410               	.L47:
 411               	.LBE575:
 412               	.LBE574:
 413               	.LBB576:
 414               	.LBB577:
 415               	.LM63:
 416 0164 2F5F      		subi r18,lo8(-(1))
 417 0166 3F4F      		sbci r19,hi8(-(1))
 418               	.L45:
 419               	.LM64:
 420 0168 8091 BC00 		lds r24,188
 421 016c 87FD      		sbrc r24,7
 422 016e 00C0      		rjmp .L46
 423 0170 2A35      		cpi r18,90
 424 0172 3105      		cpc r19,__zero_reg__
 425 0174 01F4      		brne .L47
 426               	.L46:
 427               	.LBE577:
 428               	.LBE576:
 429               	.LM65:
 430 0176 86EA      		ldi r24,lo8(-90)
 431 0178 0E94 0000 		call i2cSendByte
 432               	.LVL27:
 433 017c 20E0      		ldi r18,lo8(0)
 434 017e 30E0      		ldi r19,hi8(0)
 435               	.LVL28:
 436 0180 00C0      		rjmp .L48
 437               	.L50:
 438               	.LBB578:
 439               	.LBB579:
 440               	.LM66:
 441 0182 2F5F      		subi r18,lo8(-(1))
 442 0184 3F4F      		sbci r19,hi8(-(1))
 443               	.L48:
 444               	.LM67:
 445 0186 8091 BC00 		lds r24,188
 446 018a 87FD      		sbrc r24,7
 447 018c 00C0      		rjmp .L49
 448 018e 2A35      		cpi r18,90
 449 0190 3105      		cpc r19,__zero_reg__
 450 0192 01F4      		brne .L50
 451               	.L49:
 452               	.LBE579:
 453               	.LBE578:
 454               	.LM68:
 455 0194 81E3      		ldi r24,lo8(49)
 456 0196 0E94 0000 		call i2cSendByte
 457               	.LVL29:
 458 019a 20E0      		ldi r18,lo8(0)
 459 019c 30E0      		ldi r19,hi8(0)
 460               	.LVL30:
 461 019e 00C0      		rjmp .L51
 462               	.L53:
 463               	.LBB580:
 464               	.LBB581:
 465               	.LM69:
 466 01a0 2F5F      		subi r18,lo8(-(1))
 467 01a2 3F4F      		sbci r19,hi8(-(1))
 468               	.L51:
 469               	.LM70:
 470 01a4 8091 BC00 		lds r24,188
 471 01a8 87FD      		sbrc r24,7
 472 01aa 00C0      		rjmp .L52
 473 01ac 2A35      		cpi r18,90
 474 01ae 3105      		cpc r19,__zero_reg__
 475 01b0 01F4      		brne .L53
 476               	.L52:
 477               	.LBE581:
 478               	.LBE580:
 479               	.LM71:
 480 01b2 88E0      		ldi r24,lo8(8)
 481 01b4 0E94 0000 		call i2cSendByte
 482               	.LVL31:
 483 01b8 20E0      		ldi r18,lo8(0)
 484 01ba 30E0      		ldi r19,hi8(0)
 485               	.LVL32:
 486 01bc 00C0      		rjmp .L54
 487               	.L56:
 488               	.LBB582:
 489               	.LBB583:
 490               	.LM72:
 491 01be 2F5F      		subi r18,lo8(-(1))
 492 01c0 3F4F      		sbci r19,hi8(-(1))
 493               	.L54:
 494               	.LM73:
 495 01c2 8091 BC00 		lds r24,188
 496 01c6 87FD      		sbrc r24,7
 497 01c8 00C0      		rjmp .L55
 498 01ca 2A35      		cpi r18,90
 499 01cc 3105      		cpc r19,__zero_reg__
 500 01ce 01F4      		brne .L56
 501               	.L55:
 502               	.LBE583:
 503               	.LBE582:
 504               	.LBB584:
 505               	.LBB585:
 506               	.LM74:
 507 01d0 84E9      		ldi r24,lo8(-108)
 508 01d2 8093 BC00 		sts 188,r24
 509               	/* epilogue start */
 510               	.LBE585:
 511               	.LBE584:
 512               	.LM75:
 513 01d6 0895      		ret
 514               	.LFE14:
 516               	.global	gyro_init
 518               	gyro_init:
 519               	.LFB21:
 520               	.LM76:
 521               	/* prologue: function */
 522               	/* frame size = 0 */
 523               	.LBB586:
 524               	.LBB587:
 525               	.LM77:
 526 01d8 3C9A      		sbi 39-32,4
 527               	.LM78:
 528 01da 84EA      		ldi r24,lo8(-92)
 529 01dc 8093 BC00 		sts 188,r24
 530 01e0 20E0      		ldi r18,lo8(0)
 531 01e2 30E0      		ldi r19,hi8(0)
 532               	.LVL33:
 533 01e4 00C0      		rjmp .L59
 534               	.L61:
 535               	.LBE587:
 536               	.LBE586:
 537               	.LBB588:
 538               	.LBB589:
 539               	.LM79:
 540 01e6 2F5F      		subi r18,lo8(-(1))
 541 01e8 3F4F      		sbci r19,hi8(-(1))
 542               	.L59:
 543               	.LM80:
 544 01ea 8091 BC00 		lds r24,188
 545 01ee 87FD      		sbrc r24,7
 546 01f0 00C0      		rjmp .L60
 547 01f2 2A35      		cpi r18,90
 548 01f4 3105      		cpc r19,__zero_reg__
 549 01f6 01F4      		brne .L61
 550               	.L60:
 551               	.LBE589:
 552               	.LBE588:
 553               	.LM81:
 554 01f8 80ED      		ldi r24,lo8(-48)
 555 01fa 0E94 0000 		call i2cSendByte
 556               	.LVL34:
 557 01fe 20E0      		ldi r18,lo8(0)
 558 0200 30E0      		ldi r19,hi8(0)
 559               	.LVL35:
 560 0202 00C0      		rjmp .L62
 561               	.L64:
 562               	.LBB590:
 563               	.LBB591:
 564               	.LM82:
 565 0204 2F5F      		subi r18,lo8(-(1))
 566 0206 3F4F      		sbci r19,hi8(-(1))
 567               	.L62:
 568               	.LM83:
 569 0208 8091 BC00 		lds r24,188
 570 020c 87FD      		sbrc r24,7
 571 020e 00C0      		rjmp .L63
 572 0210 2A35      		cpi r18,90
 573 0212 3105      		cpc r19,__zero_reg__
 574 0214 01F4      		brne .L64
 575               	.L63:
 576               	.LBE591:
 577               	.LBE590:
 578               	.LM84:
 579 0216 8EE3      		ldi r24,lo8(62)
 580 0218 0E94 0000 		call i2cSendByte
 581               	.LVL36:
 582 021c 20E0      		ldi r18,lo8(0)
 583 021e 30E0      		ldi r19,hi8(0)
 584               	.LVL37:
 585 0220 00C0      		rjmp .L65
 586               	.L67:
 587               	.LBB592:
 588               	.LBB593:
 589               	.LM85:
 590 0222 2F5F      		subi r18,lo8(-(1))
 591 0224 3F4F      		sbci r19,hi8(-(1))
 592               	.L65:
 593               	.LM86:
 594 0226 8091 BC00 		lds r24,188
 595 022a 87FD      		sbrc r24,7
 596 022c 00C0      		rjmp .L66
 597 022e 2A35      		cpi r18,90
 598 0230 3105      		cpc r19,__zero_reg__
 599 0232 01F4      		brne .L67
 600               	.L66:
 601               	.LBE593:
 602               	.LBE592:
 603               	.LM87:
 604 0234 80E8      		ldi r24,lo8(-128)
 605 0236 0E94 0000 		call i2cSendByte
 606               	.LVL38:
 607 023a 20E0      		ldi r18,lo8(0)
 608 023c 30E0      		ldi r19,hi8(0)
 609               	.LVL39:
 610 023e 00C0      		rjmp .L68
 611               	.L70:
 612               	.LBB594:
 613               	.LBB595:
 614               	.LM88:
 615 0240 2F5F      		subi r18,lo8(-(1))
 616 0242 3F4F      		sbci r19,hi8(-(1))
 617               	.L68:
 618               	.LM89:
 619 0244 8091 BC00 		lds r24,188
 620 0248 87FD      		sbrc r24,7
 621 024a 00C0      		rjmp .L69
 622 024c 2A35      		cpi r18,90
 623 024e 3105      		cpc r19,__zero_reg__
 624 0250 01F4      		brne .L70
 625               	.L69:
 626               	.LBE595:
 627               	.LBE594:
 628               	.LBB596:
 629               	.LBB597:
 630               	.LM90:
 631 0252 84E9      		ldi r24,lo8(-108)
 632 0254 8093 BC00 		sts 188,r24
 633               	.LBE597:
 634               	.LBE596:
 635               	.LM91:
 636 0258 8AE0      		ldi r24,lo8(10)
 637 025a 90E0      		ldi r25,hi8(10)
 638 025c 0E94 0000 		call delay_ms
 639               	.LVL40:
 640               	.LBB598:
 641               	.LBB599:
 642               	.LM92:
 643 0260 3C9A      		sbi 39-32,4
 644               	.LM93:
 645 0262 84EA      		ldi r24,lo8(-92)
 646 0264 8093 BC00 		sts 188,r24
 647 0268 20E0      		ldi r18,lo8(0)
 648 026a 30E0      		ldi r19,hi8(0)
 649               	.LVL41:
 650 026c 00C0      		rjmp .L71
 651               	.L73:
 652               	.LBE599:
 653               	.LBE598:
 654               	.LBB600:
 655               	.LBB601:
 656               	.LM94:
 657 026e 2F5F      		subi r18,lo8(-(1))
 658 0270 3F4F      		sbci r19,hi8(-(1))
 659               	.L71:
 660               	.LM95:
 661 0272 8091 BC00 		lds r24,188
 662 0276 87FD      		sbrc r24,7
 663 0278 00C0      		rjmp .L72
 664 027a 2A35      		cpi r18,90
 665 027c 3105      		cpc r19,__zero_reg__
 666 027e 01F4      		brne .L73
 667               	.L72:
 668               	.LBE601:
 669               	.LBE600:
 670               	.LM96:
 671 0280 80ED      		ldi r24,lo8(-48)
 672 0282 0E94 0000 		call i2cSendByte
 673               	.LVL42:
 674 0286 20E0      		ldi r18,lo8(0)
 675 0288 30E0      		ldi r19,hi8(0)
 676               	.LVL43:
 677 028a 00C0      		rjmp .L74
 678               	.L76:
 679               	.LBB602:
 680               	.LBB603:
 681               	.LM97:
 682 028c 2F5F      		subi r18,lo8(-(1))
 683 028e 3F4F      		sbci r19,hi8(-(1))
 684               	.L74:
 685               	.LM98:
 686 0290 8091 BC00 		lds r24,188
 687 0294 87FD      		sbrc r24,7
 688 0296 00C0      		rjmp .L75
 689 0298 2A35      		cpi r18,90
 690 029a 3105      		cpc r19,__zero_reg__
 691 029c 01F4      		brne .L76
 692               	.L75:
 693               	.LBE603:
 694               	.LBE602:
 695               	.LM99:
 696 029e 86E1      		ldi r24,lo8(22)
 697 02a0 0E94 0000 		call i2cSendByte
 698               	.LVL44:
 699 02a4 20E0      		ldi r18,lo8(0)
 700 02a6 30E0      		ldi r19,hi8(0)
 701               	.LVL45:
 702 02a8 00C0      		rjmp .L77
 703               	.L79:
 704               	.LBB604:
 705               	.LBB605:
 706               	.LM100:
 707 02aa 2F5F      		subi r18,lo8(-(1))
 708 02ac 3F4F      		sbci r19,hi8(-(1))
 709               	.L77:
 710               	.LM101:
 711 02ae 8091 BC00 		lds r24,188
 712 02b2 87FD      		sbrc r24,7
 713 02b4 00C0      		rjmp .L78
 714 02b6 2A35      		cpi r18,90
 715 02b8 3105      		cpc r19,__zero_reg__
 716 02ba 01F4      		brne .L79
 717               	.L78:
 718               	.LBE605:
 719               	.LBE604:
 720               	.LM102:
 721 02bc 88E1      		ldi r24,lo8(24)
 722 02be 0E94 0000 		call i2cSendByte
 723               	.LVL46:
 724 02c2 20E0      		ldi r18,lo8(0)
 725 02c4 30E0      		ldi r19,hi8(0)
 726               	.LVL47:
 727 02c6 00C0      		rjmp .L80
 728               	.L82:
 729               	.LBB606:
 730               	.LBB607:
 731               	.LM103:
 732 02c8 2F5F      		subi r18,lo8(-(1))
 733 02ca 3F4F      		sbci r19,hi8(-(1))
 734               	.L80:
 735               	.LM104:
 736 02cc 8091 BC00 		lds r24,188
 737 02d0 87FD      		sbrc r24,7
 738 02d2 00C0      		rjmp .L81
 739 02d4 2A35      		cpi r18,90
 740 02d6 3105      		cpc r19,__zero_reg__
 741 02d8 01F4      		brne .L82
 742               	.L81:
 743               	.LBE607:
 744               	.LBE606:
 745               	.LBB608:
 746               	.LBB609:
 747               	.LM105:
 748 02da 84E9      		ldi r24,lo8(-108)
 749 02dc 8093 BC00 		sts 188,r24
 750               	.LBE609:
 751               	.LBE608:
 752               	.LM106:
 753 02e0 8AE0      		ldi r24,lo8(10)
 754 02e2 90E0      		ldi r25,hi8(10)
 755 02e4 0E94 0000 		call delay_ms
 756               	.LVL48:
 757               	.LBB610:
 758               	.LBB611:
 759               	.LM107:
 760 02e8 3C9A      		sbi 39-32,4
 761               	.LM108:
 762 02ea 84EA      		ldi r24,lo8(-92)
 763 02ec 8093 BC00 		sts 188,r24
 764 02f0 20E0      		ldi r18,lo8(0)
 765 02f2 30E0      		ldi r19,hi8(0)
 766               	.LVL49:
 767 02f4 00C0      		rjmp .L83
 768               	.L85:
 769               	.LBE611:
 770               	.LBE610:
 771               	.LBB612:
 772               	.LBB613:
 773               	.LM109:
 774 02f6 2F5F      		subi r18,lo8(-(1))
 775 02f8 3F4F      		sbci r19,hi8(-(1))
 776               	.L83:
 777               	.LM110:
 778 02fa 8091 BC00 		lds r24,188
 779 02fe 87FD      		sbrc r24,7
 780 0300 00C0      		rjmp .L84
 781 0302 2A35      		cpi r18,90
 782 0304 3105      		cpc r19,__zero_reg__
 783 0306 01F4      		brne .L85
 784               	.L84:
 785               	.LBE613:
 786               	.LBE612:
 787               	.LM111:
 788 0308 80ED      		ldi r24,lo8(-48)
 789 030a 0E94 0000 		call i2cSendByte
 790               	.LVL50:
 791 030e 20E0      		ldi r18,lo8(0)
 792 0310 30E0      		ldi r19,hi8(0)
 793               	.LVL51:
 794 0312 00C0      		rjmp .L86
 795               	.L88:
 796               	.LBB614:
 797               	.LBB615:
 798               	.LM112:
 799 0314 2F5F      		subi r18,lo8(-(1))
 800 0316 3F4F      		sbci r19,hi8(-(1))
 801               	.L86:
 802               	.LM113:
 803 0318 8091 BC00 		lds r24,188
 804 031c 87FD      		sbrc r24,7
 805 031e 00C0      		rjmp .L87
 806 0320 2A35      		cpi r18,90
 807 0322 3105      		cpc r19,__zero_reg__
 808 0324 01F4      		brne .L88
 809               	.L87:
 810               	.LBE615:
 811               	.LBE614:
 812               	.LM114:
 813 0326 8EE3      		ldi r24,lo8(62)
 814 0328 0E94 0000 		call i2cSendByte
 815               	.LVL52:
 816 032c 20E0      		ldi r18,lo8(0)
 817 032e 30E0      		ldi r19,hi8(0)
 818               	.LVL53:
 819 0330 00C0      		rjmp .L89
 820               	.L91:
 821               	.LBB616:
 822               	.LBB617:
 823               	.LM115:
 824 0332 2F5F      		subi r18,lo8(-(1))
 825 0334 3F4F      		sbci r19,hi8(-(1))
 826               	.L89:
 827               	.LM116:
 828 0336 8091 BC00 		lds r24,188
 829 033a 87FD      		sbrc r24,7
 830 033c 00C0      		rjmp .L90
 831 033e 2A35      		cpi r18,90
 832 0340 3105      		cpc r19,__zero_reg__
 833 0342 01F4      		brne .L91
 834               	.L90:
 835               	.LBE617:
 836               	.LBE616:
 837               	.LM117:
 838 0344 80E0      		ldi r24,lo8(0)
 839 0346 0E94 0000 		call i2cSendByte
 840               	.LVL54:
 841 034a 20E0      		ldi r18,lo8(0)
 842 034c 30E0      		ldi r19,hi8(0)
 843               	.LVL55:
 844 034e 00C0      		rjmp .L92
 845               	.L94:
 846               	.LBB618:
 847               	.LBB619:
 848               	.LM118:
 849 0350 2F5F      		subi r18,lo8(-(1))
 850 0352 3F4F      		sbci r19,hi8(-(1))
 851               	.L92:
 852               	.LM119:
 853 0354 8091 BC00 		lds r24,188
 854 0358 87FD      		sbrc r24,7
 855 035a 00C0      		rjmp .L93
 856 035c 2A35      		cpi r18,90
 857 035e 3105      		cpc r19,__zero_reg__
 858 0360 01F4      		brne .L94
 859               	.L93:
 860               	.LBE619:
 861               	.LBE618:
 862               	.LBB620:
 863               	.LBB621:
 864               	.LM120:
 865 0362 84E9      		ldi r24,lo8(-108)
 866 0364 8093 BC00 		sts 188,r24
 867               	/* epilogue start */
 868               	.LBE621:
 869               	.LBE620:
 870               	.LM121:
 871 0368 0895      		ret
 872               	.LFE21:
 874               	.global	magnetometer_init
 876               	magnetometer_init:
 877               	.LFB25:
 878               	.LM122:
 879               	/* prologue: function */
 880               	/* frame size = 0 */
 881               	.LBB622:
 882               	.LBB623:
 883               	.LM123:
 884 036a 3C9A      		sbi 39-32,4
 885               	.LM124:
 886 036c 84EA      		ldi r24,lo8(-92)
 887 036e 8093 BC00 		sts 188,r24
 888 0372 20E0      		ldi r18,lo8(0)
 889 0374 30E0      		ldi r19,hi8(0)
 890               	.LVL56:
 891 0376 00C0      		rjmp .L97
 892               	.L99:
 893               	.LBE623:
 894               	.LBE622:
 895               	.LBB624:
 896               	.LBB625:
 897               	.LM125:
 898 0378 2F5F      		subi r18,lo8(-(1))
 899 037a 3F4F      		sbci r19,hi8(-(1))
 900               	.L97:
 901               	.LM126:
 902 037c 8091 BC00 		lds r24,188
 903 0380 87FD      		sbrc r24,7
 904 0382 00C0      		rjmp .L98
 905 0384 2A35      		cpi r18,90
 906 0386 3105      		cpc r19,__zero_reg__
 907 0388 01F4      		brne .L99
 908               	.L98:
 909               	.LBE625:
 910               	.LBE624:
 911               	.LM127:
 912 038a 8CE3      		ldi r24,lo8(60)
 913 038c 0E94 0000 		call i2cSendByte
 914               	.LVL57:
 915 0390 20E0      		ldi r18,lo8(0)
 916 0392 30E0      		ldi r19,hi8(0)
 917               	.LVL58:
 918 0394 00C0      		rjmp .L100
 919               	.L102:
 920               	.LBB626:
 921               	.LBB627:
 922               	.LM128:
 923 0396 2F5F      		subi r18,lo8(-(1))
 924 0398 3F4F      		sbci r19,hi8(-(1))
 925               	.L100:
 926               	.LM129:
 927 039a 8091 BC00 		lds r24,188
 928 039e 87FD      		sbrc r24,7
 929 03a0 00C0      		rjmp .L101
 930 03a2 2A35      		cpi r18,90
 931 03a4 3105      		cpc r19,__zero_reg__
 932 03a6 01F4      		brne .L102
 933               	.L101:
 934               	.LBE627:
 935               	.LBE626:
 936               	.LM130:
 937 03a8 80E0      		ldi r24,lo8(0)
 938 03aa 0E94 0000 		call i2cSendByte
 939               	.LVL59:
 940 03ae 20E0      		ldi r18,lo8(0)
 941 03b0 30E0      		ldi r19,hi8(0)
 942               	.LVL60:
 943 03b2 00C0      		rjmp .L103
 944               	.L105:
 945               	.LBB628:
 946               	.LBB629:
 947               	.LM131:
 948 03b4 2F5F      		subi r18,lo8(-(1))
 949 03b6 3F4F      		sbci r19,hi8(-(1))
 950               	.L103:
 951               	.LM132:
 952 03b8 8091 BC00 		lds r24,188
 953 03bc 87FD      		sbrc r24,7
 954 03be 00C0      		rjmp .L104
 955 03c0 2A35      		cpi r18,90
 956 03c2 3105      		cpc r19,__zero_reg__
 957 03c4 01F4      		brne .L105
 958               	.L104:
 959               	.LBE629:
 960               	.LBE628:
 961               	.LM133:
 962 03c6 80E7      		ldi r24,lo8(112)
 963 03c8 0E94 0000 		call i2cSendByte
 964               	.LVL61:
 965 03cc 20E0      		ldi r18,lo8(0)
 966 03ce 30E0      		ldi r19,hi8(0)
 967               	.LVL62:
 968 03d0 00C0      		rjmp .L106
 969               	.L108:
 970               	.LBB630:
 971               	.LBB631:
 972               	.LM134:
 973 03d2 2F5F      		subi r18,lo8(-(1))
 974 03d4 3F4F      		sbci r19,hi8(-(1))
 975               	.L106:
 976               	.LM135:
 977 03d6 8091 BC00 		lds r24,188
 978 03da 87FD      		sbrc r24,7
 979 03dc 00C0      		rjmp .L107
 980 03de 2A35      		cpi r18,90
 981 03e0 3105      		cpc r19,__zero_reg__
 982 03e2 01F4      		brne .L108
 983               	.L107:
 984               	.LBE631:
 985               	.LBE630:
 986               	.LBB632:
 987               	.LBB633:
 988               	.LM136:
 989 03e4 84E9      		ldi r24,lo8(-108)
 990 03e6 8093 BC00 		sts 188,r24
 991               	.LBE633:
 992               	.LBE632:
 993               	.LBB634:
 994               	.LBB635:
 995               	.LM137:
 996 03ea 3C9A      		sbi 39-32,4
 997               	.LM138:
 998 03ec 84EA      		ldi r24,lo8(-92)
 999 03ee 8093 BC00 		sts 188,r24
 1000 03f2 20E0      		ldi r18,lo8(0)
 1001 03f4 30E0      		ldi r19,hi8(0)
 1002               	.LVL63:
 1003 03f6 00C0      		rjmp .L109
 1004               	.L111:
 1005               	.LBE635:
 1006               	.LBE634:
 1007               	.LBB636:
 1008               	.LBB637:
 1009               	.LM139:
 1010 03f8 2F5F      		subi r18,lo8(-(1))
 1011 03fa 3F4F      		sbci r19,hi8(-(1))
 1012               	.L109:
 1013               	.LM140:
 1014 03fc 8091 BC00 		lds r24,188
 1015 0400 87FD      		sbrc r24,7
 1016 0402 00C0      		rjmp .L110
 1017 0404 2A35      		cpi r18,90
 1018 0406 3105      		cpc r19,__zero_reg__
 1019 0408 01F4      		brne .L111
 1020               	.L110:
 1021               	.LBE637:
 1022               	.LBE636:
 1023               	.LM141:
 1024 040a 8CE3      		ldi r24,lo8(60)
 1025 040c 0E94 0000 		call i2cSendByte
 1026               	.LVL64:
 1027 0410 20E0      		ldi r18,lo8(0)
 1028 0412 30E0      		ldi r19,hi8(0)
 1029               	.LVL65:
 1030 0414 00C0      		rjmp .L112
 1031               	.L114:
 1032               	.LBB638:
 1033               	.LBB639:
 1034               	.LM142:
 1035 0416 2F5F      		subi r18,lo8(-(1))
 1036 0418 3F4F      		sbci r19,hi8(-(1))
 1037               	.L112:
 1038               	.LM143:
 1039 041a 8091 BC00 		lds r24,188
 1040 041e 87FD      		sbrc r24,7
 1041 0420 00C0      		rjmp .L113
 1042 0422 2A35      		cpi r18,90
 1043 0424 3105      		cpc r19,__zero_reg__
 1044 0426 01F4      		brne .L114
 1045               	.L113:
 1046               	.LBE639:
 1047               	.LBE638:
 1048               	.LM144:
 1049 0428 81E0      		ldi r24,lo8(1)
 1050 042a 0E94 0000 		call i2cSendByte
 1051               	.LVL66:
 1052 042e 20E0      		ldi r18,lo8(0)
 1053 0430 30E0      		ldi r19,hi8(0)
 1054               	.LVL67:
 1055 0432 00C0      		rjmp .L115
 1056               	.L117:
 1057               	.LBB640:
 1058               	.LBB641:
 1059               	.LM145:
 1060 0434 2F5F      		subi r18,lo8(-(1))
 1061 0436 3F4F      		sbci r19,hi8(-(1))
 1062               	.L115:
 1063               	.LM146:
 1064 0438 8091 BC00 		lds r24,188
 1065 043c 87FD      		sbrc r24,7
 1066 043e 00C0      		rjmp .L116
 1067 0440 2A35      		cpi r18,90
 1068 0442 3105      		cpc r19,__zero_reg__
 1069 0444 01F4      		brne .L117
 1070               	.L116:
 1071               	.LBE641:
 1072               	.LBE640:
 1073               	.LM147:
 1074 0446 80EA      		ldi r24,lo8(-96)
 1075 0448 0E94 0000 		call i2cSendByte
 1076               	.LVL68:
 1077 044c 20E0      		ldi r18,lo8(0)
 1078 044e 30E0      		ldi r19,hi8(0)
 1079               	.LVL69:
 1080 0450 00C0      		rjmp .L118
 1081               	.L120:
 1082               	.LBB642:
 1083               	.LBB643:
 1084               	.LM148:
 1085 0452 2F5F      		subi r18,lo8(-(1))
 1086 0454 3F4F      		sbci r19,hi8(-(1))
 1087               	.L118:
 1088               	.LM149:
 1089 0456 8091 BC00 		lds r24,188
 1090 045a 87FD      		sbrc r24,7
 1091 045c 00C0      		rjmp .L119
 1092 045e 2A35      		cpi r18,90
 1093 0460 3105      		cpc r19,__zero_reg__
 1094 0462 01F4      		brne .L120
 1095               	.L119:
 1096               	.LBE643:
 1097               	.LBE642:
 1098               	.LBB644:
 1099               	.LBB645:
 1100               	.LM150:
 1101 0464 84E9      		ldi r24,lo8(-108)
 1102 0466 8093 BC00 		sts 188,r24
 1103               	.LBE645:
 1104               	.LBE644:
 1105               	.LBB646:
 1106               	.LBB647:
 1107               	.LM151:
 1108 046a 3C9A      		sbi 39-32,4
 1109               	.LM152:
 1110 046c 84EA      		ldi r24,lo8(-92)
 1111 046e 8093 BC00 		sts 188,r24
 1112 0472 20E0      		ldi r18,lo8(0)
 1113 0474 30E0      		ldi r19,hi8(0)
 1114               	.LVL70:
 1115 0476 00C0      		rjmp .L121
 1116               	.L123:
 1117               	.LBE647:
 1118               	.LBE646:
 1119               	.LBB648:
 1120               	.LBB649:
 1121               	.LM153:
 1122 0478 2F5F      		subi r18,lo8(-(1))
 1123 047a 3F4F      		sbci r19,hi8(-(1))
 1124               	.L121:
 1125               	.LM154:
 1126 047c 8091 BC00 		lds r24,188
 1127 0480 87FD      		sbrc r24,7
 1128 0482 00C0      		rjmp .L122
 1129 0484 2A35      		cpi r18,90
 1130 0486 3105      		cpc r19,__zero_reg__
 1131 0488 01F4      		brne .L123
 1132               	.L122:
 1133               	.LBE649:
 1134               	.LBE648:
 1135               	.LM155:
 1136 048a 8CE3      		ldi r24,lo8(60)
 1137 048c 0E94 0000 		call i2cSendByte
 1138               	.LVL71:
 1139 0490 20E0      		ldi r18,lo8(0)
 1140 0492 30E0      		ldi r19,hi8(0)
 1141               	.LVL72:
 1142 0494 00C0      		rjmp .L124
 1143               	.L126:
 1144               	.LBB650:
 1145               	.LBB651:
 1146               	.LM156:
 1147 0496 2F5F      		subi r18,lo8(-(1))
 1148 0498 3F4F      		sbci r19,hi8(-(1))
 1149               	.L124:
 1150               	.LM157:
 1151 049a 8091 BC00 		lds r24,188
 1152 049e 87FD      		sbrc r24,7
 1153 04a0 00C0      		rjmp .L125
 1154 04a2 2A35      		cpi r18,90
 1155 04a4 3105      		cpc r19,__zero_reg__
 1156 04a6 01F4      		brne .L126
 1157               	.L125:
 1158               	.LBE651:
 1159               	.LBE650:
 1160               	.LM158:
 1161 04a8 82E0      		ldi r24,lo8(2)
 1162 04aa 0E94 0000 		call i2cSendByte
 1163               	.LVL73:
 1164 04ae 20E0      		ldi r18,lo8(0)
 1165 04b0 30E0      		ldi r19,hi8(0)
 1166               	.LVL74:
 1167 04b2 00C0      		rjmp .L127
 1168               	.L129:
 1169               	.LBB652:
 1170               	.LBB653:
 1171               	.LM159:
 1172 04b4 2F5F      		subi r18,lo8(-(1))
 1173 04b6 3F4F      		sbci r19,hi8(-(1))
 1174               	.L127:
 1175               	.LM160:
 1176 04b8 8091 BC00 		lds r24,188
 1177 04bc 87FD      		sbrc r24,7
 1178 04be 00C0      		rjmp .L128
 1179 04c0 2A35      		cpi r18,90
 1180 04c2 3105      		cpc r19,__zero_reg__
 1181 04c4 01F4      		brne .L129
 1182               	.L128:
 1183               	.LBE653:
 1184               	.LBE652:
 1185               	.LM161:
 1186 04c6 80E0      		ldi r24,lo8(0)
 1187 04c8 0E94 0000 		call i2cSendByte
 1188               	.LVL75:
 1189 04cc 20E0      		ldi r18,lo8(0)
 1190 04ce 30E0      		ldi r19,hi8(0)
 1191               	.LVL76:
 1192 04d0 00C0      		rjmp .L130
 1193               	.L132:
 1194               	.LBB654:
 1195               	.LBB655:
 1196               	.LM162:
 1197 04d2 2F5F      		subi r18,lo8(-(1))
 1198 04d4 3F4F      		sbci r19,hi8(-(1))
 1199               	.L130:
 1200               	.LM163:
 1201 04d6 8091 BC00 		lds r24,188
 1202 04da 87FD      		sbrc r24,7
 1203 04dc 00C0      		rjmp .L131
 1204 04de 2A35      		cpi r18,90
 1205 04e0 3105      		cpc r19,__zero_reg__
 1206 04e2 01F4      		brne .L132
 1207               	.L131:
 1208               	.LBE655:
 1209               	.LBE654:
 1210               	.LBB656:
 1211               	.LBB657:
 1212               	.LM164:
 1213 04e4 84E9      		ldi r24,lo8(-108)
 1214 04e6 8093 BC00 		sts 188,r24
 1215               	/* epilogue start */
 1216               	.LBE657:
 1217               	.LBE656:
 1218               	.LM165:
 1219 04ea 0895      		ret
 1220               	.LFE25:
 1222               	.global	magnetometer
 1224               	magnetometer:
 1225               	.LFB24:
 1226               	.LM166:
 1227 04ec 1F93      		push r17
 1228               	/* prologue: function */
 1229               	/* frame size = 0 */
 1230               	.LM167:
 1231 04ee 0E94 0000 		call magnetometer_init
 1232               	.LBB658:
 1233               	.LBB659:
 1234               	.LM168:
 1235 04f2 3C9A      		sbi 39-32,4
 1236               	.LM169:
 1237 04f4 84EA      		ldi r24,lo8(-92)
 1238 04f6 8093 BC00 		sts 188,r24
 1239 04fa 20E0      		ldi r18,lo8(0)
 1240 04fc 30E0      		ldi r19,hi8(0)
 1241               	.LVL77:
 1242 04fe 00C0      		rjmp .L135
 1243               	.L137:
 1244               	.LBE659:
 1245               	.LBE658:
 1246               	.LBB660:
 1247               	.LBB661:
 1248               	.LM170:
 1249 0500 2F5F      		subi r18,lo8(-(1))
 1250 0502 3F4F      		sbci r19,hi8(-(1))
 1251               	.L135:
 1252               	.LM171:
 1253 0504 8091 BC00 		lds r24,188
 1254 0508 87FD      		sbrc r24,7
 1255 050a 00C0      		rjmp .L136
 1256 050c 2A35      		cpi r18,90
 1257 050e 3105      		cpc r19,__zero_reg__
 1258 0510 01F4      		brne .L137
 1259               	.L136:
 1260               	.LBE661:
 1261               	.LBE660:
 1262               	.LM172:
 1263 0512 8DE3      		ldi r24,lo8(61)
 1264 0514 0E94 0000 		call i2cSendByte
 1265               	.LVL78:
 1266 0518 20E0      		ldi r18,lo8(0)
 1267 051a 30E0      		ldi r19,hi8(0)
 1268               	.LVL79:
 1269 051c 00C0      		rjmp .L138
 1270               	.L140:
 1271               	.LBB662:
 1272               	.LBB663:
 1273               	.LM173:
 1274 051e 2F5F      		subi r18,lo8(-(1))
 1275 0520 3F4F      		sbci r19,hi8(-(1))
 1276               	.L138:
 1277               	.LM174:
 1278 0522 8091 BC00 		lds r24,188
 1279 0526 87FD      		sbrc r24,7
 1280 0528 00C0      		rjmp .L139
 1281 052a 2A35      		cpi r18,90
 1282 052c 3105      		cpc r19,__zero_reg__
 1283 052e 01F4      		brne .L140
 1284               	.L139:
 1285               	.LBE663:
 1286               	.LBE662:
 1287               	.LM175:
 1288 0530 8FEF      		ldi r24,lo8(-1)
 1289 0532 0E94 0000 		call i2cReceiveByte
 1290               	.LVL80:
 1291 0536 20E0      		ldi r18,lo8(0)
 1292 0538 30E0      		ldi r19,hi8(0)
 1293               	.LVL81:
 1294 053a 00C0      		rjmp .L141
 1295               	.L143:
 1296               	.LBB664:
 1297               	.LBB665:
 1298               	.LM176:
 1299 053c 2F5F      		subi r18,lo8(-(1))
 1300 053e 3F4F      		sbci r19,hi8(-(1))
 1301               	.L141:
 1302               	.LM177:
 1303 0540 8091 BC00 		lds r24,188
 1304 0544 87FD      		sbrc r24,7
 1305 0546 00C0      		rjmp .L142
 1306 0548 2A35      		cpi r18,90
 1307 054a 3105      		cpc r19,__zero_reg__
 1308 054c 01F4      		brne .L143
 1309               	.L142:
 1310               	.LBE665:
 1311               	.LBE664:
 1312               	.LBB666:
 1313               	.LBB667:
 1314               	.LM178:
 1315 054e 1091 BB00 		lds r17,187
 1316               	.LVL82:
 1317 0552 20E0      		ldi r18,lo8(0)
 1318 0554 30E0      		ldi r19,hi8(0)
 1319               	.LVL83:
 1320 0556 00C0      		rjmp .L144
 1321               	.L146:
 1322               	.LBE667:
 1323               	.LBE666:
 1324               	.LBB668:
 1325               	.LBB669:
 1326               	.LM179:
 1327 0558 2F5F      		subi r18,lo8(-(1))
 1328 055a 3F4F      		sbci r19,hi8(-(1))
 1329               	.L144:
 1330               	.LM180:
 1331 055c 8091 BC00 		lds r24,188
 1332 0560 87FD      		sbrc r24,7
 1333 0562 00C0      		rjmp .L145
 1334 0564 2A35      		cpi r18,90
 1335 0566 3105      		cpc r19,__zero_reg__
 1336 0568 01F4      		brne .L146
 1337               	.L145:
 1338               	.LBE669:
 1339               	.LBE668:
 1340               	.LM181:
 1341 056a 8FEF      		ldi r24,lo8(-1)
 1342 056c 0E94 0000 		call i2cReceiveByte
 1343               	.LVL84:
 1344 0570 20E0      		ldi r18,lo8(0)
 1345 0572 30E0      		ldi r19,hi8(0)
 1346               	.LVL85:
 1347 0574 00C0      		rjmp .L147
 1348               	.L149:
 1349               	.LBB670:
 1350               	.LBB671:
 1351               	.LM182:
 1352 0576 2F5F      		subi r18,lo8(-(1))
 1353 0578 3F4F      		sbci r19,hi8(-(1))
 1354               	.L147:
 1355               	.LM183:
 1356 057a 8091 BC00 		lds r24,188
 1357 057e 87FD      		sbrc r24,7
 1358 0580 00C0      		rjmp .L148
 1359 0582 2A35      		cpi r18,90
 1360 0584 3105      		cpc r19,__zero_reg__
 1361 0586 01F4      		brne .L149
 1362               	.L148:
 1363               	.LBE671:
 1364               	.LBE670:
 1365               	.LBB672:
 1366               	.LBB673:
 1367               	.LM184:
 1368 0588 2091 BB00 		lds r18,187
 1369               	.LVL86:
 1370 058c 40E0      		ldi r20,lo8(0)
 1371 058e 50E0      		ldi r21,hi8(0)
 1372               	.LVL87:
 1373 0590 00C0      		rjmp .L150
 1374               	.L152:
 1375               	.LBE673:
 1376               	.LBE672:
 1377               	.LBB674:
 1378               	.LBB675:
 1379               	.LM185:
 1380 0592 4F5F      		subi r20,lo8(-(1))
 1381 0594 5F4F      		sbci r21,hi8(-(1))
 1382               	.L150:
 1383               	.LM186:
 1384 0596 8091 BC00 		lds r24,188
 1385 059a 87FD      		sbrc r24,7
 1386 059c 00C0      		rjmp .L151
 1387 059e 4A35      		cpi r20,90
 1388 05a0 5105      		cpc r21,__zero_reg__
 1389 05a2 01F4      		brne .L152
 1390               	.L151:
 1391               	.LBE675:
 1392               	.LBE674:
 1393               	.LM187:
 1394 05a4 912F      		mov r25,r17
 1395               	.LVL88:
 1396 05a6 80E0      		ldi r24,lo8(0)
 1397               	.LVL89:
 1398 05a8 30E0      		ldi r19,lo8(0)
 1399               	.LVL90:
 1400 05aa 822B      		or r24,r18
 1401 05ac 932B      		or r25,r19
 1402               	.LVL91:
 1403 05ae 9093 0000 		sts (x_mag)+1,r25
 1404 05b2 8093 0000 		sts x_mag,r24
 1405               	.LM188:
 1406 05b6 8FEF      		ldi r24,lo8(-1)
 1407               	.LVL92:
 1408 05b8 0E94 0000 		call i2cReceiveByte
 1409               	.LVL93:
 1410 05bc 20E0      		ldi r18,lo8(0)
 1411 05be 30E0      		ldi r19,hi8(0)
 1412               	.LVL94:
 1413 05c0 00C0      		rjmp .L153
 1414               	.L155:
 1415               	.LBB676:
 1416               	.LBB677:
 1417               	.LM189:
 1418 05c2 2F5F      		subi r18,lo8(-(1))
 1419 05c4 3F4F      		sbci r19,hi8(-(1))
 1420               	.L153:
 1421               	.LM190:
 1422 05c6 8091 BC00 		lds r24,188
 1423 05ca 87FD      		sbrc r24,7
 1424 05cc 00C0      		rjmp .L154
 1425 05ce 2A35      		cpi r18,90
 1426 05d0 3105      		cpc r19,__zero_reg__
 1427 05d2 01F4      		brne .L155
 1428               	.L154:
 1429               	.LBE677:
 1430               	.LBE676:
 1431               	.LBB678:
 1432               	.LBB679:
 1433               	.LM191:
 1434 05d4 1091 BB00 		lds r17,187
 1435               	.LVL95:
 1436 05d8 20E0      		ldi r18,lo8(0)
 1437 05da 30E0      		ldi r19,hi8(0)
 1438               	.LVL96:
 1439 05dc 00C0      		rjmp .L156
 1440               	.L158:
 1441               	.LBE679:
 1442               	.LBE678:
 1443               	.LBB680:
 1444               	.LBB681:
 1445               	.LM192:
 1446 05de 2F5F      		subi r18,lo8(-(1))
 1447 05e0 3F4F      		sbci r19,hi8(-(1))
 1448               	.L156:
 1449               	.LM193:
 1450 05e2 8091 BC00 		lds r24,188
 1451 05e6 87FD      		sbrc r24,7
 1452 05e8 00C0      		rjmp .L157
 1453 05ea 2A35      		cpi r18,90
 1454 05ec 3105      		cpc r19,__zero_reg__
 1455 05ee 01F4      		brne .L158
 1456               	.L157:
 1457               	.LBE681:
 1458               	.LBE680:
 1459               	.LM194:
 1460 05f0 8FEF      		ldi r24,lo8(-1)
 1461 05f2 0E94 0000 		call i2cReceiveByte
 1462               	.LVL97:
 1463 05f6 20E0      		ldi r18,lo8(0)
 1464 05f8 30E0      		ldi r19,hi8(0)
 1465               	.LVL98:
 1466 05fa 00C0      		rjmp .L159
 1467               	.L161:
 1468               	.LBB682:
 1469               	.LBB683:
 1470               	.LM195:
 1471 05fc 2F5F      		subi r18,lo8(-(1))
 1472 05fe 3F4F      		sbci r19,hi8(-(1))
 1473               	.L159:
 1474               	.LM196:
 1475 0600 8091 BC00 		lds r24,188
 1476 0604 87FD      		sbrc r24,7
 1477 0606 00C0      		rjmp .L160
 1478 0608 2A35      		cpi r18,90
 1479 060a 3105      		cpc r19,__zero_reg__
 1480 060c 01F4      		brne .L161
 1481               	.L160:
 1482               	.LBE683:
 1483               	.LBE682:
 1484               	.LBB684:
 1485               	.LBB685:
 1486               	.LM197:
 1487 060e 2091 BB00 		lds r18,187
 1488               	.LVL99:
 1489 0612 40E0      		ldi r20,lo8(0)
 1490 0614 50E0      		ldi r21,hi8(0)
 1491               	.LVL100:
 1492 0616 00C0      		rjmp .L162
 1493               	.L164:
 1494               	.LBE685:
 1495               	.LBE684:
 1496               	.LBB686:
 1497               	.LBB687:
 1498               	.LM198:
 1499 0618 4F5F      		subi r20,lo8(-(1))
 1500 061a 5F4F      		sbci r21,hi8(-(1))
 1501               	.L162:
 1502               	.LM199:
 1503 061c 8091 BC00 		lds r24,188
 1504 0620 87FD      		sbrc r24,7
 1505 0622 00C0      		rjmp .L163
 1506 0624 4A35      		cpi r20,90
 1507 0626 5105      		cpc r21,__zero_reg__
 1508 0628 01F4      		brne .L164
 1509               	.L163:
 1510               	.LBE687:
 1511               	.LBE686:
 1512               	.LM200:
 1513 062a 912F      		mov r25,r17
 1514               	.LVL101:
 1515 062c 80E0      		ldi r24,lo8(0)
 1516               	.LVL102:
 1517 062e 30E0      		ldi r19,lo8(0)
 1518               	.LVL103:
 1519 0630 822B      		or r24,r18
 1520 0632 932B      		or r25,r19
 1521               	.LVL104:
 1522 0634 9093 0000 		sts (z_mag)+1,r25
 1523 0638 8093 0000 		sts z_mag,r24
 1524               	.LM201:
 1525 063c 8FEF      		ldi r24,lo8(-1)
 1526               	.LVL105:
 1527 063e 0E94 0000 		call i2cReceiveByte
 1528               	.LVL106:
 1529 0642 20E0      		ldi r18,lo8(0)
 1530 0644 30E0      		ldi r19,hi8(0)
 1531               	.LVL107:
 1532 0646 00C0      		rjmp .L165
 1533               	.L167:
 1534               	.LBB688:
 1535               	.LBB689:
 1536               	.LM202:
 1537 0648 2F5F      		subi r18,lo8(-(1))
 1538 064a 3F4F      		sbci r19,hi8(-(1))
 1539               	.L165:
 1540               	.LM203:
 1541 064c 8091 BC00 		lds r24,188
 1542 0650 87FD      		sbrc r24,7
 1543 0652 00C0      		rjmp .L166
 1544 0654 2A35      		cpi r18,90
 1545 0656 3105      		cpc r19,__zero_reg__
 1546 0658 01F4      		brne .L167
 1547               	.L166:
 1548               	.LBE689:
 1549               	.LBE688:
 1550               	.LBB690:
 1551               	.LBB691:
 1552               	.LM204:
 1553 065a 1091 BB00 		lds r17,187
 1554               	.LVL108:
 1555 065e 20E0      		ldi r18,lo8(0)
 1556 0660 30E0      		ldi r19,hi8(0)
 1557               	.LVL109:
 1558 0662 00C0      		rjmp .L168
 1559               	.L170:
 1560               	.LBE691:
 1561               	.LBE690:
 1562               	.LBB692:
 1563               	.LBB693:
 1564               	.LM205:
 1565 0664 2F5F      		subi r18,lo8(-(1))
 1566 0666 3F4F      		sbci r19,hi8(-(1))
 1567               	.L168:
 1568               	.LM206:
 1569 0668 8091 BC00 		lds r24,188
 1570 066c 87FD      		sbrc r24,7
 1571 066e 00C0      		rjmp .L169
 1572 0670 2A35      		cpi r18,90
 1573 0672 3105      		cpc r19,__zero_reg__
 1574 0674 01F4      		brne .L170
 1575               	.L169:
 1576               	.LBE693:
 1577               	.LBE692:
 1578               	.LM207:
 1579 0676 8FEF      		ldi r24,lo8(-1)
 1580 0678 0E94 0000 		call i2cReceiveByte
 1581               	.LVL110:
 1582 067c 20E0      		ldi r18,lo8(0)
 1583 067e 30E0      		ldi r19,hi8(0)
 1584               	.LVL111:
 1585 0680 00C0      		rjmp .L171
 1586               	.L173:
 1587               	.LBB694:
 1588               	.LBB695:
 1589               	.LM208:
 1590 0682 2F5F      		subi r18,lo8(-(1))
 1591 0684 3F4F      		sbci r19,hi8(-(1))
 1592               	.L171:
 1593               	.LM209:
 1594 0686 8091 BC00 		lds r24,188
 1595 068a 87FD      		sbrc r24,7
 1596 068c 00C0      		rjmp .L172
 1597 068e 2A35      		cpi r18,90
 1598 0690 3105      		cpc r19,__zero_reg__
 1599 0692 01F4      		brne .L173
 1600               	.L172:
 1601               	.LBE695:
 1602               	.LBE694:
 1603               	.LBB696:
 1604               	.LBB697:
 1605               	.LM210:
 1606 0694 2091 BB00 		lds r18,187
 1607               	.LVL112:
 1608 0698 40E0      		ldi r20,lo8(0)
 1609 069a 50E0      		ldi r21,hi8(0)
 1610               	.LVL113:
 1611 069c 00C0      		rjmp .L174
 1612               	.L176:
 1613               	.LBE697:
 1614               	.LBE696:
 1615               	.LBB698:
 1616               	.LBB699:
 1617               	.LM211:
 1618 069e 4F5F      		subi r20,lo8(-(1))
 1619 06a0 5F4F      		sbci r21,hi8(-(1))
 1620               	.L174:
 1621               	.LM212:
 1622 06a2 8091 BC00 		lds r24,188
 1623 06a6 87FD      		sbrc r24,7
 1624 06a8 00C0      		rjmp .L175
 1625 06aa 4A35      		cpi r20,90
 1626 06ac 5105      		cpc r21,__zero_reg__
 1627 06ae 01F4      		brne .L176
 1628               	.L175:
 1629               	.LBE699:
 1630               	.LBE698:
 1631               	.LM213:
 1632 06b0 912F      		mov r25,r17
 1633               	.LVL114:
 1634 06b2 80E0      		ldi r24,lo8(0)
 1635               	.LVL115:
 1636 06b4 30E0      		ldi r19,lo8(0)
 1637               	.LVL116:
 1638 06b6 822B      		or r24,r18
 1639 06b8 932B      		or r25,r19
 1640               	.LVL117:
 1641 06ba 9093 0000 		sts (y_mag)+1,r25
 1642 06be 8093 0000 		sts y_mag,r24
 1643               	.LM214:
 1644 06c2 8DE3      		ldi r24,lo8(61)
 1645               	.LVL118:
 1646 06c4 0E94 0000 		call i2cSendByte
 1647               	.LVL119:
 1648 06c8 20E0      		ldi r18,lo8(0)
 1649 06ca 30E0      		ldi r19,hi8(0)
 1650               	.LVL120:
 1651 06cc 00C0      		rjmp .L177
 1652               	.L179:
 1653               	.LBB700:
 1654               	.LBB701:
 1655               	.LM215:
 1656 06ce 2F5F      		subi r18,lo8(-(1))
 1657 06d0 3F4F      		sbci r19,hi8(-(1))
 1658               	.L177:
 1659               	.LM216:
 1660 06d2 8091 BC00 		lds r24,188
 1661 06d6 87FD      		sbrc r24,7
 1662 06d8 00C0      		rjmp .L178
 1663 06da 2A35      		cpi r18,90
 1664 06dc 3105      		cpc r19,__zero_reg__
 1665 06de 01F4      		brne .L179
 1666               	.L178:
 1667               	.LBE701:
 1668               	.LBE700:
 1669               	.LBB702:
 1670               	.LBB703:
 1671               	.LM217:
 1672 06e0 84E9      		ldi r24,lo8(-108)
 1673 06e2 8093 BC00 		sts 188,r24
 1674               	/* epilogue start */
 1675               	.LBE703:
 1676               	.LBE702:
 1677               	.LM218:
 1678 06e6 1F91      		pop r17
 1679 06e8 0895      		ret
 1680               	.LFE24:
 1682               	.global	x_gyro
 1684               	x_gyro:
 1685               	.LFB29:
 1686               	.LM219:
 1687 06ea 1F93      		push r17
 1688               	/* prologue: function */
 1689               	/* frame size = 0 */
 1690               	.LM220:
 1691 06ec 8091 BC00 		lds r24,188
 1692 06f0 8B7F      		andi r24,lo8(-5)
 1693 06f2 8093 BC00 		sts 188,r24
 1694               	.LM221:
 1695 06f6 8091 BC00 		lds r24,188
 1696 06fa 8460      		ori r24,lo8(4)
 1697 06fc 8093 BC00 		sts 188,r24
 1698               	.LBB704:
 1699               	.LBB705:
 1700               	.LM222:
 1701 0700 3C9A      		sbi 39-32,4
 1702               	.LM223:
 1703 0702 84EA      		ldi r24,lo8(-92)
 1704 0704 8093 BC00 		sts 188,r24
 1705 0708 20E0      		ldi r18,lo8(0)
 1706 070a 30E0      		ldi r19,hi8(0)
 1707               	.LVL121:
 1708 070c 00C0      		rjmp .L182
 1709               	.L184:
 1710               	.LBE705:
 1711               	.LBE704:
 1712               	.LBB706:
 1713               	.LBB707:
 1714               	.LM224:
 1715 070e 2F5F      		subi r18,lo8(-(1))
 1716 0710 3F4F      		sbci r19,hi8(-(1))
 1717               	.L182:
 1718               	.LM225:
 1719 0712 8091 BC00 		lds r24,188
 1720 0716 87FD      		sbrc r24,7
 1721 0718 00C0      		rjmp .L183
 1722 071a 2A35      		cpi r18,90
 1723 071c 3105      		cpc r19,__zero_reg__
 1724 071e 01F4      		brne .L184
 1725               	.L183:
 1726               	.LBE707:
 1727               	.LBE706:
 1728               	.LM226:
 1729 0720 80ED      		ldi r24,lo8(-48)
 1730 0722 0E94 0000 		call i2cSendByte
 1731               	.LVL122:
 1732 0726 20E0      		ldi r18,lo8(0)
 1733 0728 30E0      		ldi r19,hi8(0)
 1734               	.LVL123:
 1735 072a 00C0      		rjmp .L185
 1736               	.L187:
 1737               	.LBB708:
 1738               	.LBB709:
 1739               	.LM227:
 1740 072c 2F5F      		subi r18,lo8(-(1))
 1741 072e 3F4F      		sbci r19,hi8(-(1))
 1742               	.L185:
 1743               	.LM228:
 1744 0730 8091 BC00 		lds r24,188
 1745 0734 87FD      		sbrc r24,7
 1746 0736 00C0      		rjmp .L186
 1747 0738 2A35      		cpi r18,90
 1748 073a 3105      		cpc r19,__zero_reg__
 1749 073c 01F4      		brne .L187
 1750               	.L186:
 1751               	.LBE709:
 1752               	.LBE708:
 1753               	.LM229:
 1754 073e 8DE1      		ldi r24,lo8(29)
 1755 0740 0E94 0000 		call i2cSendByte
 1756               	.LVL124:
 1757 0744 20E0      		ldi r18,lo8(0)
 1758 0746 30E0      		ldi r19,hi8(0)
 1759               	.LVL125:
 1760 0748 00C0      		rjmp .L188
 1761               	.L190:
 1762               	.LBB710:
 1763               	.LBB711:
 1764               	.LM230:
 1765 074a 2F5F      		subi r18,lo8(-(1))
 1766 074c 3F4F      		sbci r19,hi8(-(1))
 1767               	.L188:
 1768               	.LM231:
 1769 074e 8091 BC00 		lds r24,188
 1770 0752 87FD      		sbrc r24,7
 1771 0754 00C0      		rjmp .L189
 1772 0756 2A35      		cpi r18,90
 1773 0758 3105      		cpc r19,__zero_reg__
 1774 075a 01F4      		brne .L190
 1775               	.L189:
 1776               	.LBE711:
 1777               	.LBE710:
 1778               	.LBB712:
 1779               	.LBB713:
 1780               	.LM232:
 1781 075c 3C9A      		sbi 39-32,4
 1782               	.LM233:
 1783 075e 84EA      		ldi r24,lo8(-92)
 1784 0760 8093 BC00 		sts 188,r24
 1785               	.LBE713:
 1786               	.LBE712:
 1787               	.LM234:
 1788 0764 81ED      		ldi r24,lo8(-47)
 1789 0766 0E94 0000 		call i2cSendByte
 1790               	.LVL126:
 1791 076a 20E0      		ldi r18,lo8(0)
 1792 076c 30E0      		ldi r19,hi8(0)
 1793               	.LVL127:
 1794 076e 00C0      		rjmp .L191
 1795               	.L193:
 1796               	.LBB714:
 1797               	.LBB715:
 1798               	.LM235:
 1799 0770 2F5F      		subi r18,lo8(-(1))
 1800 0772 3F4F      		sbci r19,hi8(-(1))
 1801               	.L191:
 1802               	.LM236:
 1803 0774 8091 BC00 		lds r24,188
 1804 0778 87FD      		sbrc r24,7
 1805 077a 00C0      		rjmp .L192
 1806 077c 2A35      		cpi r18,90
 1807 077e 3105      		cpc r19,__zero_reg__
 1808 0780 01F4      		brne .L193
 1809               	.L192:
 1810               	.LBE715:
 1811               	.LBE714:
 1812               	.LM237:
 1813 0782 80E0      		ldi r24,lo8(0)
 1814 0784 0E94 0000 		call i2cReceiveByte
 1815               	.LVL128:
 1816 0788 20E0      		ldi r18,lo8(0)
 1817 078a 30E0      		ldi r19,hi8(0)
 1818               	.LVL129:
 1819 078c 00C0      		rjmp .L194
 1820               	.L196:
 1821               	.LBB716:
 1822               	.LBB717:
 1823               	.LM238:
 1824 078e 2F5F      		subi r18,lo8(-(1))
 1825 0790 3F4F      		sbci r19,hi8(-(1))
 1826               	.L194:
 1827               	.LM239:
 1828 0792 8091 BC00 		lds r24,188
 1829 0796 87FD      		sbrc r24,7
 1830 0798 00C0      		rjmp .L195
 1831 079a 2A35      		cpi r18,90
 1832 079c 3105      		cpc r19,__zero_reg__
 1833 079e 01F4      		brne .L196
 1834               	.L195:
 1835               	.LBE717:
 1836               	.LBE716:
 1837               	.LBB718:
 1838               	.LBB719:
 1839               	.LM240:
 1840 07a0 1091 BB00 		lds r17,187
 1841 07a4 20E0      		ldi r18,lo8(0)
 1842 07a6 30E0      		ldi r19,hi8(0)
 1843               	.LVL130:
 1844 07a8 00C0      		rjmp .L197
 1845               	.L199:
 1846               	.LBE719:
 1847               	.LBE718:
 1848               	.LBB720:
 1849               	.LBB721:
 1850               	.LM241:
 1851 07aa 2F5F      		subi r18,lo8(-(1))
 1852 07ac 3F4F      		sbci r19,hi8(-(1))
 1853               	.L197:
 1854               	.LM242:
 1855 07ae 8091 BC00 		lds r24,188
 1856 07b2 87FD      		sbrc r24,7
 1857 07b4 00C0      		rjmp .L198
 1858 07b6 2A35      		cpi r18,90
 1859 07b8 3105      		cpc r19,__zero_reg__
 1860 07ba 01F4      		brne .L199
 1861               	.L198:
 1862               	.LBE721:
 1863               	.LBE720:
 1864               	.LBB722:
 1865               	.LBB723:
 1866               	.LM243:
 1867 07bc 84E9      		ldi r24,lo8(-108)
 1868 07be 8093 BC00 		sts 188,r24
 1869               	.LBE723:
 1870               	.LBE722:
 1871               	.LM244:
 1872 07c2 8091 BC00 		lds r24,188
 1873 07c6 8B7F      		andi r24,lo8(-5)
 1874 07c8 8093 BC00 		sts 188,r24
 1875               	.LM245:
 1876 07cc 8091 BC00 		lds r24,188
 1877 07d0 8460      		ori r24,lo8(4)
 1878 07d2 8093 BC00 		sts 188,r24
 1879               	.LBB724:
 1880               	.LBB725:
 1881               	.LM246:
 1882 07d6 3C9A      		sbi 39-32,4
 1883               	.LM247:
 1884 07d8 84EA      		ldi r24,lo8(-92)
 1885 07da 8093 BC00 		sts 188,r24
 1886 07de 20E0      		ldi r18,lo8(0)
 1887 07e0 30E0      		ldi r19,hi8(0)
 1888               	.LVL131:
 1889 07e2 00C0      		rjmp .L200
 1890               	.L202:
 1891               	.LBE725:
 1892               	.LBE724:
 1893               	.LBB726:
 1894               	.LBB727:
 1895               	.LM248:
 1896 07e4 2F5F      		subi r18,lo8(-(1))
 1897 07e6 3F4F      		sbci r19,hi8(-(1))
 1898               	.L200:
 1899               	.LM249:
 1900 07e8 8091 BC00 		lds r24,188
 1901 07ec 87FD      		sbrc r24,7
 1902 07ee 00C0      		rjmp .L201
 1903 07f0 2A35      		cpi r18,90
 1904 07f2 3105      		cpc r19,__zero_reg__
 1905 07f4 01F4      		brne .L202
 1906               	.L201:
 1907               	.LBE727:
 1908               	.LBE726:
 1909               	.LM250:
 1910 07f6 80ED      		ldi r24,lo8(-48)
 1911 07f8 0E94 0000 		call i2cSendByte
 1912               	.LVL132:
 1913 07fc 20E0      		ldi r18,lo8(0)
 1914 07fe 30E0      		ldi r19,hi8(0)
 1915               	.LVL133:
 1916 0800 00C0      		rjmp .L203
 1917               	.L205:
 1918               	.LBB728:
 1919               	.LBB729:
 1920               	.LM251:
 1921 0802 2F5F      		subi r18,lo8(-(1))
 1922 0804 3F4F      		sbci r19,hi8(-(1))
 1923               	.L203:
 1924               	.LM252:
 1925 0806 8091 BC00 		lds r24,188
 1926 080a 87FD      		sbrc r24,7
 1927 080c 00C0      		rjmp .L204
 1928 080e 2A35      		cpi r18,90
 1929 0810 3105      		cpc r19,__zero_reg__
 1930 0812 01F4      		brne .L205
 1931               	.L204:
 1932               	.LBE729:
 1933               	.LBE728:
 1934               	.LM253:
 1935 0814 8EE1      		ldi r24,lo8(30)
 1936 0816 0E94 0000 		call i2cSendByte
 1937               	.LVL134:
 1938 081a 20E0      		ldi r18,lo8(0)
 1939 081c 30E0      		ldi r19,hi8(0)
 1940               	.LVL135:
 1941 081e 00C0      		rjmp .L206
 1942               	.L208:
 1943               	.LBB730:
 1944               	.LBB731:
 1945               	.LM254:
 1946 0820 2F5F      		subi r18,lo8(-(1))
 1947 0822 3F4F      		sbci r19,hi8(-(1))
 1948               	.L206:
 1949               	.LM255:
 1950 0824 8091 BC00 		lds r24,188
 1951 0828 87FD      		sbrc r24,7
 1952 082a 00C0      		rjmp .L207
 1953 082c 2A35      		cpi r18,90
 1954 082e 3105      		cpc r19,__zero_reg__
 1955 0830 01F4      		brne .L208
 1956               	.L207:
 1957               	.LBE731:
 1958               	.LBE730:
 1959               	.LBB732:
 1960               	.LBB733:
 1961               	.LM256:
 1962 0832 3C9A      		sbi 39-32,4
 1963               	.LM257:
 1964 0834 84EA      		ldi r24,lo8(-92)
 1965 0836 8093 BC00 		sts 188,r24
 1966               	.LBE733:
 1967               	.LBE732:
 1968               	.LM258:
 1969 083a 81ED      		ldi r24,lo8(-47)
 1970 083c 0E94 0000 		call i2cSendByte
 1971               	.LVL136:
 1972 0840 20E0      		ldi r18,lo8(0)
 1973 0842 30E0      		ldi r19,hi8(0)
 1974               	.LVL137:
 1975 0844 00C0      		rjmp .L209
 1976               	.L211:
 1977               	.LBB734:
 1978               	.LBB735:
 1979               	.LM259:
 1980 0846 2F5F      		subi r18,lo8(-(1))
 1981 0848 3F4F      		sbci r19,hi8(-(1))
 1982               	.L209:
 1983               	.LM260:
 1984 084a 8091 BC00 		lds r24,188
 1985 084e 87FD      		sbrc r24,7
 1986 0850 00C0      		rjmp .L210
 1987 0852 2A35      		cpi r18,90
 1988 0854 3105      		cpc r19,__zero_reg__
 1989 0856 01F4      		brne .L211
 1990               	.L210:
 1991               	.LBE735:
 1992               	.LBE734:
 1993               	.LM261:
 1994 0858 80E0      		ldi r24,lo8(0)
 1995 085a 0E94 0000 		call i2cReceiveByte
 1996               	.LVL138:
 1997 085e 20E0      		ldi r18,lo8(0)
 1998 0860 30E0      		ldi r19,hi8(0)
 1999               	.LVL139:
 2000 0862 00C0      		rjmp .L212
 2001               	.L214:
 2002               	.LBB736:
 2003               	.LBB737:
 2004               	.LM262:
 2005 0864 2F5F      		subi r18,lo8(-(1))
 2006 0866 3F4F      		sbci r19,hi8(-(1))
 2007               	.L212:
 2008               	.LM263:
 2009 0868 8091 BC00 		lds r24,188
 2010 086c 87FD      		sbrc r24,7
 2011 086e 00C0      		rjmp .L213
 2012 0870 2A35      		cpi r18,90
 2013 0872 3105      		cpc r19,__zero_reg__
 2014 0874 01F4      		brne .L214
 2015               	.L213:
 2016               	.LBE737:
 2017               	.LBE736:
 2018               	.LBB738:
 2019               	.LBB739:
 2020               	.LM264:
 2021 0876 2091 BB00 		lds r18,187
 2022               	.LVL140:
 2023 087a 40E0      		ldi r20,lo8(0)
 2024 087c 50E0      		ldi r21,hi8(0)
 2025               	.LVL141:
 2026 087e 00C0      		rjmp .L215
 2027               	.L217:
 2028               	.LBE739:
 2029               	.LBE738:
 2030               	.LBB740:
 2031               	.LBB741:
 2032               	.LM265:
 2033 0880 4F5F      		subi r20,lo8(-(1))
 2034 0882 5F4F      		sbci r21,hi8(-(1))
 2035               	.L215:
 2036               	.LM266:
 2037 0884 8091 BC00 		lds r24,188
 2038 0888 87FD      		sbrc r24,7
 2039 088a 00C0      		rjmp .L216
 2040 088c 4A35      		cpi r20,90
 2041 088e 5105      		cpc r21,__zero_reg__
 2042 0890 01F4      		brne .L217
 2043               	.L216:
 2044               	.LBE741:
 2045               	.LBE740:
 2046               	.LBB742:
 2047               	.LBB743:
 2048               	.LM267:
 2049 0892 84E9      		ldi r24,lo8(-108)
 2050 0894 8093 BC00 		sts 188,r24
 2051               	.LBE743:
 2052               	.LBE742:
 2053               	.LM268:
 2054 0898 8091 BC00 		lds r24,188
 2055 089c 8B7F      		andi r24,lo8(-5)
 2056 089e 8093 BC00 		sts 188,r24
 2057               	.LM269:
 2058 08a2 8091 BC00 		lds r24,188
 2059 08a6 8460      		ori r24,lo8(4)
 2060 08a8 8093 BC00 		sts 188,r24
 2061 08ac 912F      		mov r25,r17
 2062 08ae 80E0      		ldi r24,lo8(0)
 2063 08b0 30E0      		ldi r19,lo8(0)
 2064 08b2 282B      		or r18,r24
 2065 08b4 392B      		or r19,r25
 2066               	.LM270:
 2067 08b6 C901      		movw r24,r18
 2068               	/* epilogue start */
 2069 08b8 1F91      		pop r17
 2070 08ba 0895      		ret
 2071               	.LFE29:
 2073               	.global	y_gyro
 2075               	y_gyro:
 2076               	.LFB30:
 2077               	.LM271:
 2078 08bc 1F93      		push r17
 2079               	/* prologue: function */
 2080               	/* frame size = 0 */
 2081               	.LM272:
 2082 08be 8091 BC00 		lds r24,188
 2083 08c2 8B7F      		andi r24,lo8(-5)
 2084 08c4 8093 BC00 		sts 188,r24
 2085               	.LM273:
 2086 08c8 8091 BC00 		lds r24,188
 2087 08cc 8460      		ori r24,lo8(4)
 2088 08ce 8093 BC00 		sts 188,r24
 2089               	.LBB744:
 2090               	.LBB745:
 2091               	.LM274:
 2092 08d2 3C9A      		sbi 39-32,4
 2093               	.LM275:
 2094 08d4 84EA      		ldi r24,lo8(-92)
 2095 08d6 8093 BC00 		sts 188,r24
 2096 08da 20E0      		ldi r18,lo8(0)
 2097 08dc 30E0      		ldi r19,hi8(0)
 2098               	.LVL142:
 2099 08de 00C0      		rjmp .L220
 2100               	.L222:
 2101               	.LBE745:
 2102               	.LBE744:
 2103               	.LBB746:
 2104               	.LBB747:
 2105               	.LM276:
 2106 08e0 2F5F      		subi r18,lo8(-(1))
 2107 08e2 3F4F      		sbci r19,hi8(-(1))
 2108               	.L220:
 2109               	.LM277:
 2110 08e4 8091 BC00 		lds r24,188
 2111 08e8 87FD      		sbrc r24,7
 2112 08ea 00C0      		rjmp .L221
 2113 08ec 2A35      		cpi r18,90
 2114 08ee 3105      		cpc r19,__zero_reg__
 2115 08f0 01F4      		brne .L222
 2116               	.L221:
 2117               	.LBE747:
 2118               	.LBE746:
 2119               	.LM278:
 2120 08f2 80ED      		ldi r24,lo8(-48)
 2121 08f4 0E94 0000 		call i2cSendByte
 2122               	.LVL143:
 2123 08f8 20E0      		ldi r18,lo8(0)
 2124 08fa 30E0      		ldi r19,hi8(0)
 2125               	.LVL144:
 2126 08fc 00C0      		rjmp .L223
 2127               	.L225:
 2128               	.LBB748:
 2129               	.LBB749:
 2130               	.LM279:
 2131 08fe 2F5F      		subi r18,lo8(-(1))
 2132 0900 3F4F      		sbci r19,hi8(-(1))
 2133               	.L223:
 2134               	.LM280:
 2135 0902 8091 BC00 		lds r24,188
 2136 0906 87FD      		sbrc r24,7
 2137 0908 00C0      		rjmp .L224
 2138 090a 2A35      		cpi r18,90
 2139 090c 3105      		cpc r19,__zero_reg__
 2140 090e 01F4      		brne .L225
 2141               	.L224:
 2142               	.LBE749:
 2143               	.LBE748:
 2144               	.LM281:
 2145 0910 8FE1      		ldi r24,lo8(31)
 2146 0912 0E94 0000 		call i2cSendByte
 2147               	.LVL145:
 2148 0916 20E0      		ldi r18,lo8(0)
 2149 0918 30E0      		ldi r19,hi8(0)
 2150               	.LVL146:
 2151 091a 00C0      		rjmp .L226
 2152               	.L228:
 2153               	.LBB750:
 2154               	.LBB751:
 2155               	.LM282:
 2156 091c 2F5F      		subi r18,lo8(-(1))
 2157 091e 3F4F      		sbci r19,hi8(-(1))
 2158               	.L226:
 2159               	.LM283:
 2160 0920 8091 BC00 		lds r24,188
 2161 0924 87FD      		sbrc r24,7
 2162 0926 00C0      		rjmp .L227
 2163 0928 2A35      		cpi r18,90
 2164 092a 3105      		cpc r19,__zero_reg__
 2165 092c 01F4      		brne .L228
 2166               	.L227:
 2167               	.LBE751:
 2168               	.LBE750:
 2169               	.LBB752:
 2170               	.LBB753:
 2171               	.LM284:
 2172 092e 3C9A      		sbi 39-32,4
 2173               	.LM285:
 2174 0930 84EA      		ldi r24,lo8(-92)
 2175 0932 8093 BC00 		sts 188,r24
 2176               	.LBE753:
 2177               	.LBE752:
 2178               	.LM286:
 2179 0936 81ED      		ldi r24,lo8(-47)
 2180 0938 0E94 0000 		call i2cSendByte
 2181               	.LVL147:
 2182 093c 20E0      		ldi r18,lo8(0)
 2183 093e 30E0      		ldi r19,hi8(0)
 2184               	.LVL148:
 2185 0940 00C0      		rjmp .L229
 2186               	.L231:
 2187               	.LBB754:
 2188               	.LBB755:
 2189               	.LM287:
 2190 0942 2F5F      		subi r18,lo8(-(1))
 2191 0944 3F4F      		sbci r19,hi8(-(1))
 2192               	.L229:
 2193               	.LM288:
 2194 0946 8091 BC00 		lds r24,188
 2195 094a 87FD      		sbrc r24,7
 2196 094c 00C0      		rjmp .L230
 2197 094e 2A35      		cpi r18,90
 2198 0950 3105      		cpc r19,__zero_reg__
 2199 0952 01F4      		brne .L231
 2200               	.L230:
 2201               	.LBE755:
 2202               	.LBE754:
 2203               	.LM289:
 2204 0954 80E0      		ldi r24,lo8(0)
 2205 0956 0E94 0000 		call i2cReceiveByte
 2206               	.LVL149:
 2207 095a 20E0      		ldi r18,lo8(0)
 2208 095c 30E0      		ldi r19,hi8(0)
 2209               	.LVL150:
 2210 095e 00C0      		rjmp .L232
 2211               	.L234:
 2212               	.LBB756:
 2213               	.LBB757:
 2214               	.LM290:
 2215 0960 2F5F      		subi r18,lo8(-(1))
 2216 0962 3F4F      		sbci r19,hi8(-(1))
 2217               	.L232:
 2218               	.LM291:
 2219 0964 8091 BC00 		lds r24,188
 2220 0968 87FD      		sbrc r24,7
 2221 096a 00C0      		rjmp .L233
 2222 096c 2A35      		cpi r18,90
 2223 096e 3105      		cpc r19,__zero_reg__
 2224 0970 01F4      		brne .L234
 2225               	.L233:
 2226               	.LBE757:
 2227               	.LBE756:
 2228               	.LBB758:
 2229               	.LBB759:
 2230               	.LM292:
 2231 0972 1091 BB00 		lds r17,187
 2232 0976 20E0      		ldi r18,lo8(0)
 2233 0978 30E0      		ldi r19,hi8(0)
 2234               	.LVL151:
 2235 097a 00C0      		rjmp .L235
 2236               	.L237:
 2237               	.LBE759:
 2238               	.LBE758:
 2239               	.LBB760:
 2240               	.LBB761:
 2241               	.LM293:
 2242 097c 2F5F      		subi r18,lo8(-(1))
 2243 097e 3F4F      		sbci r19,hi8(-(1))
 2244               	.L235:
 2245               	.LM294:
 2246 0980 8091 BC00 		lds r24,188
 2247 0984 87FD      		sbrc r24,7
 2248 0986 00C0      		rjmp .L236
 2249 0988 2A35      		cpi r18,90
 2250 098a 3105      		cpc r19,__zero_reg__
 2251 098c 01F4      		brne .L237
 2252               	.L236:
 2253               	.LBE761:
 2254               	.LBE760:
 2255               	.LBB762:
 2256               	.LBB763:
 2257               	.LM295:
 2258 098e 84E9      		ldi r24,lo8(-108)
 2259 0990 8093 BC00 		sts 188,r24
 2260               	.LBE763:
 2261               	.LBE762:
 2262               	.LM296:
 2263 0994 8091 BC00 		lds r24,188
 2264 0998 8B7F      		andi r24,lo8(-5)
 2265 099a 8093 BC00 		sts 188,r24
 2266               	.LM297:
 2267 099e 8091 BC00 		lds r24,188
 2268 09a2 8460      		ori r24,lo8(4)
 2269 09a4 8093 BC00 		sts 188,r24
 2270               	.LBB764:
 2271               	.LBB765:
 2272               	.LM298:
 2273 09a8 3C9A      		sbi 39-32,4
 2274               	.LM299:
 2275 09aa 84EA      		ldi r24,lo8(-92)
 2276 09ac 8093 BC00 		sts 188,r24
 2277 09b0 20E0      		ldi r18,lo8(0)
 2278 09b2 30E0      		ldi r19,hi8(0)
 2279               	.LVL152:
 2280 09b4 00C0      		rjmp .L238
 2281               	.L240:
 2282               	.LBE765:
 2283               	.LBE764:
 2284               	.LBB766:
 2285               	.LBB767:
 2286               	.LM300:
 2287 09b6 2F5F      		subi r18,lo8(-(1))
 2288 09b8 3F4F      		sbci r19,hi8(-(1))
 2289               	.L238:
 2290               	.LM301:
 2291 09ba 8091 BC00 		lds r24,188
 2292 09be 87FD      		sbrc r24,7
 2293 09c0 00C0      		rjmp .L239
 2294 09c2 2A35      		cpi r18,90
 2295 09c4 3105      		cpc r19,__zero_reg__
 2296 09c6 01F4      		brne .L240
 2297               	.L239:
 2298               	.LBE767:
 2299               	.LBE766:
 2300               	.LM302:
 2301 09c8 80ED      		ldi r24,lo8(-48)
 2302 09ca 0E94 0000 		call i2cSendByte
 2303               	.LVL153:
 2304 09ce 20E0      		ldi r18,lo8(0)
 2305 09d0 30E0      		ldi r19,hi8(0)
 2306               	.LVL154:
 2307 09d2 00C0      		rjmp .L241
 2308               	.L243:
 2309               	.LBB768:
 2310               	.LBB769:
 2311               	.LM303:
 2312 09d4 2F5F      		subi r18,lo8(-(1))
 2313 09d6 3F4F      		sbci r19,hi8(-(1))
 2314               	.L241:
 2315               	.LM304:
 2316 09d8 8091 BC00 		lds r24,188
 2317 09dc 87FD      		sbrc r24,7
 2318 09de 00C0      		rjmp .L242
 2319 09e0 2A35      		cpi r18,90
 2320 09e2 3105      		cpc r19,__zero_reg__
 2321 09e4 01F4      		brne .L243
 2322               	.L242:
 2323               	.LBE769:
 2324               	.LBE768:
 2325               	.LM305:
 2326 09e6 80E2      		ldi r24,lo8(32)
 2327 09e8 0E94 0000 		call i2cSendByte
 2328               	.LVL155:
 2329 09ec 20E0      		ldi r18,lo8(0)
 2330 09ee 30E0      		ldi r19,hi8(0)
 2331               	.LVL156:
 2332 09f0 00C0      		rjmp .L244
 2333               	.L246:
 2334               	.LBB770:
 2335               	.LBB771:
 2336               	.LM306:
 2337 09f2 2F5F      		subi r18,lo8(-(1))
 2338 09f4 3F4F      		sbci r19,hi8(-(1))
 2339               	.L244:
 2340               	.LM307:
 2341 09f6 8091 BC00 		lds r24,188
 2342 09fa 87FD      		sbrc r24,7
 2343 09fc 00C0      		rjmp .L245
 2344 09fe 2A35      		cpi r18,90
 2345 0a00 3105      		cpc r19,__zero_reg__
 2346 0a02 01F4      		brne .L246
 2347               	.L245:
 2348               	.LBE771:
 2349               	.LBE770:
 2350               	.LBB772:
 2351               	.LBB773:
 2352               	.LM308:
 2353 0a04 3C9A      		sbi 39-32,4
 2354               	.LM309:
 2355 0a06 84EA      		ldi r24,lo8(-92)
 2356 0a08 8093 BC00 		sts 188,r24
 2357               	.LBE773:
 2358               	.LBE772:
 2359               	.LM310:
 2360 0a0c 81ED      		ldi r24,lo8(-47)
 2361 0a0e 0E94 0000 		call i2cSendByte
 2362               	.LVL157:
 2363 0a12 20E0      		ldi r18,lo8(0)
 2364 0a14 30E0      		ldi r19,hi8(0)
 2365               	.LVL158:
 2366 0a16 00C0      		rjmp .L247
 2367               	.L249:
 2368               	.LBB774:
 2369               	.LBB775:
 2370               	.LM311:
 2371 0a18 2F5F      		subi r18,lo8(-(1))
 2372 0a1a 3F4F      		sbci r19,hi8(-(1))
 2373               	.L247:
 2374               	.LM312:
 2375 0a1c 8091 BC00 		lds r24,188
 2376 0a20 87FD      		sbrc r24,7
 2377 0a22 00C0      		rjmp .L248
 2378 0a24 2A35      		cpi r18,90
 2379 0a26 3105      		cpc r19,__zero_reg__
 2380 0a28 01F4      		brne .L249
 2381               	.L248:
 2382               	.LBE775:
 2383               	.LBE774:
 2384               	.LM313:
 2385 0a2a 80E0      		ldi r24,lo8(0)
 2386 0a2c 0E94 0000 		call i2cReceiveByte
 2387               	.LVL159:
 2388 0a30 20E0      		ldi r18,lo8(0)
 2389 0a32 30E0      		ldi r19,hi8(0)
 2390               	.LVL160:
 2391 0a34 00C0      		rjmp .L250
 2392               	.L252:
 2393               	.LBB776:
 2394               	.LBB777:
 2395               	.LM314:
 2396 0a36 2F5F      		subi r18,lo8(-(1))
 2397 0a38 3F4F      		sbci r19,hi8(-(1))
 2398               	.L250:
 2399               	.LM315:
 2400 0a3a 8091 BC00 		lds r24,188
 2401 0a3e 87FD      		sbrc r24,7
 2402 0a40 00C0      		rjmp .L251
 2403 0a42 2A35      		cpi r18,90
 2404 0a44 3105      		cpc r19,__zero_reg__
 2405 0a46 01F4      		brne .L252
 2406               	.L251:
 2407               	.LBE777:
 2408               	.LBE776:
 2409               	.LBB778:
 2410               	.LBB779:
 2411               	.LM316:
 2412 0a48 2091 BB00 		lds r18,187
 2413               	.LVL161:
 2414 0a4c 40E0      		ldi r20,lo8(0)
 2415 0a4e 50E0      		ldi r21,hi8(0)
 2416               	.LVL162:
 2417 0a50 00C0      		rjmp .L253
 2418               	.L255:
 2419               	.LBE779:
 2420               	.LBE778:
 2421               	.LBB780:
 2422               	.LBB781:
 2423               	.LM317:
 2424 0a52 4F5F      		subi r20,lo8(-(1))
 2425 0a54 5F4F      		sbci r21,hi8(-(1))
 2426               	.L253:
 2427               	.LM318:
 2428 0a56 8091 BC00 		lds r24,188
 2429 0a5a 87FD      		sbrc r24,7
 2430 0a5c 00C0      		rjmp .L254
 2431 0a5e 4A35      		cpi r20,90
 2432 0a60 5105      		cpc r21,__zero_reg__
 2433 0a62 01F4      		brne .L255
 2434               	.L254:
 2435               	.LBE781:
 2436               	.LBE780:
 2437               	.LBB782:
 2438               	.LBB783:
 2439               	.LM319:
 2440 0a64 84E9      		ldi r24,lo8(-108)
 2441 0a66 8093 BC00 		sts 188,r24
 2442               	.LBE783:
 2443               	.LBE782:
 2444               	.LM320:
 2445 0a6a 8091 BC00 		lds r24,188
 2446 0a6e 8B7F      		andi r24,lo8(-5)
 2447 0a70 8093 BC00 		sts 188,r24
 2448               	.LM321:
 2449 0a74 8091 BC00 		lds r24,188
 2450 0a78 8460      		ori r24,lo8(4)
 2451 0a7a 8093 BC00 		sts 188,r24
 2452 0a7e 912F      		mov r25,r17
 2453 0a80 80E0      		ldi r24,lo8(0)
 2454 0a82 30E0      		ldi r19,lo8(0)
 2455 0a84 282B      		or r18,r24
 2456 0a86 392B      		or r19,r25
 2457               	.LM322:
 2458 0a88 C901      		movw r24,r18
 2459               	/* epilogue start */
 2460 0a8a 1F91      		pop r17
 2461 0a8c 0895      		ret
 2462               	.LFE30:
 2464               	.global	z_gyro
 2466               	z_gyro:
 2467               	.LFB31:
 2468               	.LM323:
 2469 0a8e 1F93      		push r17
 2470               	/* prologue: function */
 2471               	/* frame size = 0 */
 2472               	.LM324:
 2473 0a90 8091 BC00 		lds r24,188
 2474 0a94 8B7F      		andi r24,lo8(-5)
 2475 0a96 8093 BC00 		sts 188,r24
 2476               	.LM325:
 2477 0a9a 8091 BC00 		lds r24,188
 2478 0a9e 8460      		ori r24,lo8(4)
 2479 0aa0 8093 BC00 		sts 188,r24
 2480               	.LBB784:
 2481               	.LBB785:
 2482               	.LM326:
 2483 0aa4 3C9A      		sbi 39-32,4
 2484               	.LM327:
 2485 0aa6 84EA      		ldi r24,lo8(-92)
 2486 0aa8 8093 BC00 		sts 188,r24
 2487 0aac 20E0      		ldi r18,lo8(0)
 2488 0aae 30E0      		ldi r19,hi8(0)
 2489               	.LVL163:
 2490 0ab0 00C0      		rjmp .L258
 2491               	.L260:
 2492               	.LBE785:
 2493               	.LBE784:
 2494               	.LBB786:
 2495               	.LBB787:
 2496               	.LM328:
 2497 0ab2 2F5F      		subi r18,lo8(-(1))
 2498 0ab4 3F4F      		sbci r19,hi8(-(1))
 2499               	.L258:
 2500               	.LM329:
 2501 0ab6 8091 BC00 		lds r24,188
 2502 0aba 87FD      		sbrc r24,7
 2503 0abc 00C0      		rjmp .L259
 2504 0abe 2A35      		cpi r18,90
 2505 0ac0 3105      		cpc r19,__zero_reg__
 2506 0ac2 01F4      		brne .L260
 2507               	.L259:
 2508               	.LBE787:
 2509               	.LBE786:
 2510               	.LM330:
 2511 0ac4 80ED      		ldi r24,lo8(-48)
 2512 0ac6 0E94 0000 		call i2cSendByte
 2513               	.LVL164:
 2514 0aca 20E0      		ldi r18,lo8(0)
 2515 0acc 30E0      		ldi r19,hi8(0)
 2516               	.LVL165:
 2517 0ace 00C0      		rjmp .L261
 2518               	.L263:
 2519               	.LBB788:
 2520               	.LBB789:
 2521               	.LM331:
 2522 0ad0 2F5F      		subi r18,lo8(-(1))
 2523 0ad2 3F4F      		sbci r19,hi8(-(1))
 2524               	.L261:
 2525               	.LM332:
 2526 0ad4 8091 BC00 		lds r24,188
 2527 0ad8 87FD      		sbrc r24,7
 2528 0ada 00C0      		rjmp .L262
 2529 0adc 2A35      		cpi r18,90
 2530 0ade 3105      		cpc r19,__zero_reg__
 2531 0ae0 01F4      		brne .L263
 2532               	.L262:
 2533               	.LBE789:
 2534               	.LBE788:
 2535               	.LM333:
 2536 0ae2 81E2      		ldi r24,lo8(33)
 2537 0ae4 0E94 0000 		call i2cSendByte
 2538               	.LVL166:
 2539 0ae8 20E0      		ldi r18,lo8(0)
 2540 0aea 30E0      		ldi r19,hi8(0)
 2541               	.LVL167:
 2542 0aec 00C0      		rjmp .L264
 2543               	.L266:
 2544               	.LBB790:
 2545               	.LBB791:
 2546               	.LM334:
 2547 0aee 2F5F      		subi r18,lo8(-(1))
 2548 0af0 3F4F      		sbci r19,hi8(-(1))
 2549               	.L264:
 2550               	.LM335:
 2551 0af2 8091 BC00 		lds r24,188
 2552 0af6 87FD      		sbrc r24,7
 2553 0af8 00C0      		rjmp .L265
 2554 0afa 2A35      		cpi r18,90
 2555 0afc 3105      		cpc r19,__zero_reg__
 2556 0afe 01F4      		brne .L266
 2557               	.L265:
 2558               	.LBE791:
 2559               	.LBE790:
 2560               	.LBB792:
 2561               	.LBB793:
 2562               	.LM336:
 2563 0b00 3C9A      		sbi 39-32,4
 2564               	.LM337:
 2565 0b02 84EA      		ldi r24,lo8(-92)
 2566 0b04 8093 BC00 		sts 188,r24
 2567               	.LBE793:
 2568               	.LBE792:
 2569               	.LM338:
 2570 0b08 81ED      		ldi r24,lo8(-47)
 2571 0b0a 0E94 0000 		call i2cSendByte
 2572               	.LVL168:
 2573 0b0e 20E0      		ldi r18,lo8(0)
 2574 0b10 30E0      		ldi r19,hi8(0)
 2575               	.LVL169:
 2576 0b12 00C0      		rjmp .L267
 2577               	.L269:
 2578               	.LBB794:
 2579               	.LBB795:
 2580               	.LM339:
 2581 0b14 2F5F      		subi r18,lo8(-(1))
 2582 0b16 3F4F      		sbci r19,hi8(-(1))
 2583               	.L267:
 2584               	.LM340:
 2585 0b18 8091 BC00 		lds r24,188
 2586 0b1c 87FD      		sbrc r24,7
 2587 0b1e 00C0      		rjmp .L268
 2588 0b20 2A35      		cpi r18,90
 2589 0b22 3105      		cpc r19,__zero_reg__
 2590 0b24 01F4      		brne .L269
 2591               	.L268:
 2592               	.LBE795:
 2593               	.LBE794:
 2594               	.LM341:
 2595 0b26 80E0      		ldi r24,lo8(0)
 2596 0b28 0E94 0000 		call i2cReceiveByte
 2597               	.LVL170:
 2598 0b2c 20E0      		ldi r18,lo8(0)
 2599 0b2e 30E0      		ldi r19,hi8(0)
 2600               	.LVL171:
 2601 0b30 00C0      		rjmp .L270
 2602               	.L272:
 2603               	.LBB796:
 2604               	.LBB797:
 2605               	.LM342:
 2606 0b32 2F5F      		subi r18,lo8(-(1))
 2607 0b34 3F4F      		sbci r19,hi8(-(1))
 2608               	.L270:
 2609               	.LM343:
 2610 0b36 8091 BC00 		lds r24,188
 2611 0b3a 87FD      		sbrc r24,7
 2612 0b3c 00C0      		rjmp .L271
 2613 0b3e 2A35      		cpi r18,90
 2614 0b40 3105      		cpc r19,__zero_reg__
 2615 0b42 01F4      		brne .L272
 2616               	.L271:
 2617               	.LBE797:
 2618               	.LBE796:
 2619               	.LBB798:
 2620               	.LBB799:
 2621               	.LM344:
 2622 0b44 1091 BB00 		lds r17,187
 2623 0b48 20E0      		ldi r18,lo8(0)
 2624 0b4a 30E0      		ldi r19,hi8(0)
 2625               	.LVL172:
 2626 0b4c 00C0      		rjmp .L273
 2627               	.L275:
 2628               	.LBE799:
 2629               	.LBE798:
 2630               	.LBB800:
 2631               	.LBB801:
 2632               	.LM345:
 2633 0b4e 2F5F      		subi r18,lo8(-(1))
 2634 0b50 3F4F      		sbci r19,hi8(-(1))
 2635               	.L273:
 2636               	.LM346:
 2637 0b52 8091 BC00 		lds r24,188
 2638 0b56 87FD      		sbrc r24,7
 2639 0b58 00C0      		rjmp .L274
 2640 0b5a 2A35      		cpi r18,90
 2641 0b5c 3105      		cpc r19,__zero_reg__
 2642 0b5e 01F4      		brne .L275
 2643               	.L274:
 2644               	.LBE801:
 2645               	.LBE800:
 2646               	.LBB802:
 2647               	.LBB803:
 2648               	.LM347:
 2649 0b60 84E9      		ldi r24,lo8(-108)
 2650 0b62 8093 BC00 		sts 188,r24
 2651               	.LBE803:
 2652               	.LBE802:
 2653               	.LM348:
 2654 0b66 8091 BC00 		lds r24,188
 2655 0b6a 8B7F      		andi r24,lo8(-5)
 2656 0b6c 8093 BC00 		sts 188,r24
 2657               	.LM349:
 2658 0b70 8091 BC00 		lds r24,188
 2659 0b74 8460      		ori r24,lo8(4)
 2660 0b76 8093 BC00 		sts 188,r24
 2661               	.LBB804:
 2662               	.LBB805:
 2663               	.LM350:
 2664 0b7a 3C9A      		sbi 39-32,4
 2665               	.LM351:
 2666 0b7c 84EA      		ldi r24,lo8(-92)
 2667 0b7e 8093 BC00 		sts 188,r24
 2668 0b82 20E0      		ldi r18,lo8(0)
 2669 0b84 30E0      		ldi r19,hi8(0)
 2670               	.LVL173:
 2671 0b86 00C0      		rjmp .L276
 2672               	.L278:
 2673               	.LBE805:
 2674               	.LBE804:
 2675               	.LBB806:
 2676               	.LBB807:
 2677               	.LM352:
 2678 0b88 2F5F      		subi r18,lo8(-(1))
 2679 0b8a 3F4F      		sbci r19,hi8(-(1))
 2680               	.L276:
 2681               	.LM353:
 2682 0b8c 8091 BC00 		lds r24,188
 2683 0b90 87FD      		sbrc r24,7
 2684 0b92 00C0      		rjmp .L277
 2685 0b94 2A35      		cpi r18,90
 2686 0b96 3105      		cpc r19,__zero_reg__
 2687 0b98 01F4      		brne .L278
 2688               	.L277:
 2689               	.LBE807:
 2690               	.LBE806:
 2691               	.LM354:
 2692 0b9a 80ED      		ldi r24,lo8(-48)
 2693 0b9c 0E94 0000 		call i2cSendByte
 2694               	.LVL174:
 2695 0ba0 20E0      		ldi r18,lo8(0)
 2696 0ba2 30E0      		ldi r19,hi8(0)
 2697               	.LVL175:
 2698 0ba4 00C0      		rjmp .L279
 2699               	.L281:
 2700               	.LBB808:
 2701               	.LBB809:
 2702               	.LM355:
 2703 0ba6 2F5F      		subi r18,lo8(-(1))
 2704 0ba8 3F4F      		sbci r19,hi8(-(1))
 2705               	.L279:
 2706               	.LM356:
 2707 0baa 8091 BC00 		lds r24,188
 2708 0bae 87FD      		sbrc r24,7
 2709 0bb0 00C0      		rjmp .L280
 2710 0bb2 2A35      		cpi r18,90
 2711 0bb4 3105      		cpc r19,__zero_reg__
 2712 0bb6 01F4      		brne .L281
 2713               	.L280:
 2714               	.LBE809:
 2715               	.LBE808:
 2716               	.LM357:
 2717 0bb8 82E2      		ldi r24,lo8(34)
 2718 0bba 0E94 0000 		call i2cSendByte
 2719               	.LVL176:
 2720 0bbe 20E0      		ldi r18,lo8(0)
 2721 0bc0 30E0      		ldi r19,hi8(0)
 2722               	.LVL177:
 2723 0bc2 00C0      		rjmp .L282
 2724               	.L284:
 2725               	.LBB810:
 2726               	.LBB811:
 2727               	.LM358:
 2728 0bc4 2F5F      		subi r18,lo8(-(1))
 2729 0bc6 3F4F      		sbci r19,hi8(-(1))
 2730               	.L282:
 2731               	.LM359:
 2732 0bc8 8091 BC00 		lds r24,188
 2733 0bcc 87FD      		sbrc r24,7
 2734 0bce 00C0      		rjmp .L283
 2735 0bd0 2A35      		cpi r18,90
 2736 0bd2 3105      		cpc r19,__zero_reg__
 2737 0bd4 01F4      		brne .L284
 2738               	.L283:
 2739               	.LBE811:
 2740               	.LBE810:
 2741               	.LBB812:
 2742               	.LBB813:
 2743               	.LM360:
 2744 0bd6 3C9A      		sbi 39-32,4
 2745               	.LM361:
 2746 0bd8 84EA      		ldi r24,lo8(-92)
 2747 0bda 8093 BC00 		sts 188,r24
 2748               	.LBE813:
 2749               	.LBE812:
 2750               	.LM362:
 2751 0bde 81ED      		ldi r24,lo8(-47)
 2752 0be0 0E94 0000 		call i2cSendByte
 2753               	.LVL178:
 2754 0be4 20E0      		ldi r18,lo8(0)
 2755 0be6 30E0      		ldi r19,hi8(0)
 2756               	.LVL179:
 2757 0be8 00C0      		rjmp .L285
 2758               	.L287:
 2759               	.LBB814:
 2760               	.LBB815:
 2761               	.LM363:
 2762 0bea 2F5F      		subi r18,lo8(-(1))
 2763 0bec 3F4F      		sbci r19,hi8(-(1))
 2764               	.L285:
 2765               	.LM364:
 2766 0bee 8091 BC00 		lds r24,188
 2767 0bf2 87FD      		sbrc r24,7
 2768 0bf4 00C0      		rjmp .L286
 2769 0bf6 2A35      		cpi r18,90
 2770 0bf8 3105      		cpc r19,__zero_reg__
 2771 0bfa 01F4      		brne .L287
 2772               	.L286:
 2773               	.LBE815:
 2774               	.LBE814:
 2775               	.LM365:
 2776 0bfc 80E0      		ldi r24,lo8(0)
 2777 0bfe 0E94 0000 		call i2cReceiveByte
 2778               	.LVL180:
 2779 0c02 20E0      		ldi r18,lo8(0)
 2780 0c04 30E0      		ldi r19,hi8(0)
 2781               	.LVL181:
 2782 0c06 00C0      		rjmp .L288
 2783               	.L290:
 2784               	.LBB816:
 2785               	.LBB817:
 2786               	.LM366:
 2787 0c08 2F5F      		subi r18,lo8(-(1))
 2788 0c0a 3F4F      		sbci r19,hi8(-(1))
 2789               	.L288:
 2790               	.LM367:
 2791 0c0c 8091 BC00 		lds r24,188
 2792 0c10 87FD      		sbrc r24,7
 2793 0c12 00C0      		rjmp .L289
 2794 0c14 2A35      		cpi r18,90
 2795 0c16 3105      		cpc r19,__zero_reg__
 2796 0c18 01F4      		brne .L290
 2797               	.L289:
 2798               	.LBE817:
 2799               	.LBE816:
 2800               	.LBB818:
 2801               	.LBB819:
 2802               	.LM368:
 2803 0c1a 2091 BB00 		lds r18,187
 2804               	.LVL182:
 2805 0c1e 40E0      		ldi r20,lo8(0)
 2806 0c20 50E0      		ldi r21,hi8(0)
 2807               	.LVL183:
 2808 0c22 00C0      		rjmp .L291
 2809               	.L293:
 2810               	.LBE819:
 2811               	.LBE818:
 2812               	.LBB820:
 2813               	.LBB821:
 2814               	.LM369:
 2815 0c24 4F5F      		subi r20,lo8(-(1))
 2816 0c26 5F4F      		sbci r21,hi8(-(1))
 2817               	.L291:
 2818               	.LM370:
 2819 0c28 8091 BC00 		lds r24,188
 2820 0c2c 87FD      		sbrc r24,7
 2821 0c2e 00C0      		rjmp .L292
 2822 0c30 4A35      		cpi r20,90
 2823 0c32 5105      		cpc r21,__zero_reg__
 2824 0c34 01F4      		brne .L293
 2825               	.L292:
 2826               	.LBE821:
 2827               	.LBE820:
 2828               	.LBB822:
 2829               	.LBB823:
 2830               	.LM371:
 2831 0c36 84E9      		ldi r24,lo8(-108)
 2832 0c38 8093 BC00 		sts 188,r24
 2833               	.LBE823:
 2834               	.LBE822:
 2835               	.LM372:
 2836 0c3c 8091 BC00 		lds r24,188
 2837 0c40 8B7F      		andi r24,lo8(-5)
 2838 0c42 8093 BC00 		sts 188,r24
 2839               	.LM373:
 2840 0c46 8091 BC00 		lds r24,188
 2841 0c4a 8460      		ori r24,lo8(4)
 2842 0c4c 8093 BC00 		sts 188,r24
 2843 0c50 912F      		mov r25,r17
 2844 0c52 80E0      		ldi r24,lo8(0)
 2845 0c54 30E0      		ldi r19,lo8(0)
 2846 0c56 282B      		or r18,r24
 2847 0c58 392B      		or r19,r25
 2848               	.LM374:
 2849 0c5a C901      		movw r24,r18
 2850               	/* epilogue start */
 2851 0c5c 1F91      		pop r17
 2852 0c5e 0895      		ret
 2853               	.LFE31:
 2855               	.global	x_accel
 2857               	x_accel:
 2858               	.LFB32:
 2859               	.LM375:
 2860 0c60 0F93      		push r16
 2861 0c62 1F93      		push r17
 2862               	/* prologue: function */
 2863               	/* frame size = 0 */
 2864               	.LBB824:
 2865               	.LBB825:
 2866               	.LM376:
 2867 0c64 3C9A      		sbi 39-32,4
 2868               	.LM377:
 2869 0c66 84EA      		ldi r24,lo8(-92)
 2870 0c68 8093 BC00 		sts 188,r24
 2871 0c6c 20E0      		ldi r18,lo8(0)
 2872 0c6e 30E0      		ldi r19,hi8(0)
 2873               	.LVL184:
 2874 0c70 00C0      		rjmp .L296
 2875               	.L298:
 2876               	.LBE825:
 2877               	.LBE824:
 2878               	.LBB826:
 2879               	.LBB827:
 2880               	.LM378:
 2881 0c72 2F5F      		subi r18,lo8(-(1))
 2882 0c74 3F4F      		sbci r19,hi8(-(1))
 2883               	.L296:
 2884               	.LM379:
 2885 0c76 8091 BC00 		lds r24,188
 2886 0c7a 87FD      		sbrc r24,7
 2887 0c7c 00C0      		rjmp .L297
 2888 0c7e 2A35      		cpi r18,90
 2889 0c80 3105      		cpc r19,__zero_reg__
 2890 0c82 01F4      		brne .L298
 2891               	.L297:
 2892               	.LBE827:
 2893               	.LBE826:
 2894               	.LM380:
 2895 0c84 86EA      		ldi r24,lo8(-90)
 2896 0c86 0E94 0000 		call i2cSendByte
 2897               	.LVL185:
 2898 0c8a 20E0      		ldi r18,lo8(0)
 2899 0c8c 30E0      		ldi r19,hi8(0)
 2900               	.LVL186:
 2901 0c8e 00C0      		rjmp .L299
 2902               	.L301:
 2903               	.LBB828:
 2904               	.LBB829:
 2905               	.LM381:
 2906 0c90 2F5F      		subi r18,lo8(-(1))
 2907 0c92 3F4F      		sbci r19,hi8(-(1))
 2908               	.L299:
 2909               	.LM382:
 2910 0c94 8091 BC00 		lds r24,188
 2911 0c98 87FD      		sbrc r24,7
 2912 0c9a 00C0      		rjmp .L300
 2913 0c9c 2A35      		cpi r18,90
 2914 0c9e 3105      		cpc r19,__zero_reg__
 2915 0ca0 01F4      		brne .L301
 2916               	.L300:
 2917               	.LBE829:
 2918               	.LBE828:
 2919               	.LM383:
 2920 0ca2 82E3      		ldi r24,lo8(50)
 2921 0ca4 0E94 0000 		call i2cSendByte
 2922               	.LVL187:
 2923 0ca8 20E0      		ldi r18,lo8(0)
 2924 0caa 30E0      		ldi r19,hi8(0)
 2925               	.LVL188:
 2926 0cac 00C0      		rjmp .L302
 2927               	.L304:
 2928               	.LBB830:
 2929               	.LBB831:
 2930               	.LM384:
 2931 0cae 2F5F      		subi r18,lo8(-(1))
 2932 0cb0 3F4F      		sbci r19,hi8(-(1))
 2933               	.L302:
 2934               	.LM385:
 2935 0cb2 8091 BC00 		lds r24,188
 2936 0cb6 87FD      		sbrc r24,7
 2937 0cb8 00C0      		rjmp .L303
 2938 0cba 2A35      		cpi r18,90
 2939 0cbc 3105      		cpc r19,__zero_reg__
 2940 0cbe 01F4      		brne .L304
 2941               	.L303:
 2942               	.LBE831:
 2943               	.LBE830:
 2944               	.LBB832:
 2945               	.LBB833:
 2946               	.LM386:
 2947 0cc0 84E9      		ldi r24,lo8(-108)
 2948 0cc2 8093 BC00 		sts 188,r24
 2949               	.LBE833:
 2950               	.LBE832:
 2951               	.LBB834:
 2952               	.LBB835:
 2953               	.LM387:
 2954 0cc6 3C9A      		sbi 39-32,4
 2955               	.LM388:
 2956 0cc8 84EA      		ldi r24,lo8(-92)
 2957 0cca 8093 BC00 		sts 188,r24
 2958 0cce 20E0      		ldi r18,lo8(0)
 2959 0cd0 30E0      		ldi r19,hi8(0)
 2960               	.LVL189:
 2961 0cd2 00C0      		rjmp .L305
 2962               	.L307:
 2963               	.LBE835:
 2964               	.LBE834:
 2965               	.LBB836:
 2966               	.LBB837:
 2967               	.LM389:
 2968 0cd4 2F5F      		subi r18,lo8(-(1))
 2969 0cd6 3F4F      		sbci r19,hi8(-(1))
 2970               	.L305:
 2971               	.LM390:
 2972 0cd8 8091 BC00 		lds r24,188
 2973 0cdc 87FD      		sbrc r24,7
 2974 0cde 00C0      		rjmp .L306
 2975 0ce0 2A35      		cpi r18,90
 2976 0ce2 3105      		cpc r19,__zero_reg__
 2977 0ce4 01F4      		brne .L307
 2978               	.L306:
 2979               	.LBE837:
 2980               	.LBE836:
 2981               	.LM391:
 2982 0ce6 87EA      		ldi r24,lo8(-89)
 2983 0ce8 0E94 0000 		call i2cSendByte
 2984               	.LVL190:
 2985 0cec 20E0      		ldi r18,lo8(0)
 2986 0cee 30E0      		ldi r19,hi8(0)
 2987               	.LVL191:
 2988 0cf0 00C0      		rjmp .L308
 2989               	.L310:
 2990               	.LBB838:
 2991               	.LBB839:
 2992               	.LM392:
 2993 0cf2 2F5F      		subi r18,lo8(-(1))
 2994 0cf4 3F4F      		sbci r19,hi8(-(1))
 2995               	.L308:
 2996               	.LM393:
 2997 0cf6 8091 BC00 		lds r24,188
 2998 0cfa 87FD      		sbrc r24,7
 2999 0cfc 00C0      		rjmp .L309
 3000 0cfe 2A35      		cpi r18,90
 3001 0d00 3105      		cpc r19,__zero_reg__
 3002 0d02 01F4      		brne .L310
 3003               	.L309:
 3004               	.LBE839:
 3005               	.LBE838:
 3006               	.LM394:
 3007 0d04 8FEF      		ldi r24,lo8(-1)
 3008 0d06 0E94 0000 		call i2cReceiveByte
 3009               	.LVL192:
 3010 0d0a 20E0      		ldi r18,lo8(0)
 3011 0d0c 30E0      		ldi r19,hi8(0)
 3012               	.LVL193:
 3013 0d0e 00C0      		rjmp .L311
 3014               	.L313:
 3015               	.LBB840:
 3016               	.LBB841:
 3017               	.LM395:
 3018 0d10 2F5F      		subi r18,lo8(-(1))
 3019 0d12 3F4F      		sbci r19,hi8(-(1))
 3020               	.L311:
 3021               	.LM396:
 3022 0d14 8091 BC00 		lds r24,188
 3023 0d18 87FD      		sbrc r24,7
 3024 0d1a 00C0      		rjmp .L312
 3025 0d1c 2A35      		cpi r18,90
 3026 0d1e 3105      		cpc r19,__zero_reg__
 3027 0d20 01F4      		brne .L313
 3028               	.L312:
 3029               	.LBE841:
 3030               	.LBE840:
 3031               	.LBB842:
 3032               	.LBB843:
 3033               	.LM397:
 3034 0d22 0091 BB00 		lds r16,187
 3035               	.LVL194:
 3036 0d26 20E0      		ldi r18,lo8(0)
 3037 0d28 30E0      		ldi r19,hi8(0)
 3038               	.LVL195:
 3039 0d2a 00C0      		rjmp .L314
 3040               	.L316:
 3041               	.LBE843:
 3042               	.LBE842:
 3043               	.LBB844:
 3044               	.LBB845:
 3045               	.LM398:
 3046 0d2c 2F5F      		subi r18,lo8(-(1))
 3047 0d2e 3F4F      		sbci r19,hi8(-(1))
 3048               	.L314:
 3049               	.LM399:
 3050 0d30 8091 BC00 		lds r24,188
 3051 0d34 87FD      		sbrc r24,7
 3052 0d36 00C0      		rjmp .L315
 3053 0d38 2A35      		cpi r18,90
 3054 0d3a 3105      		cpc r19,__zero_reg__
 3055 0d3c 01F4      		brne .L316
 3056               	.L315:
 3057               	.LBE845:
 3058               	.LBE844:
 3059               	.LM400:
 3060 0d3e 80E0      		ldi r24,lo8(0)
 3061 0d40 0E94 0000 		call i2cReceiveByte
 3062               	.LVL196:
 3063 0d44 20E0      		ldi r18,lo8(0)
 3064 0d46 30E0      		ldi r19,hi8(0)
 3065               	.LVL197:
 3066 0d48 00C0      		rjmp .L317
 3067               	.L319:
 3068               	.LBB846:
 3069               	.LBB847:
 3070               	.LM401:
 3071 0d4a 2F5F      		subi r18,lo8(-(1))
 3072 0d4c 3F4F      		sbci r19,hi8(-(1))
 3073               	.L317:
 3074               	.LM402:
 3075 0d4e 8091 BC00 		lds r24,188
 3076 0d52 87FD      		sbrc r24,7
 3077 0d54 00C0      		rjmp .L318
 3078 0d56 2A35      		cpi r18,90
 3079 0d58 3105      		cpc r19,__zero_reg__
 3080 0d5a 01F4      		brne .L319
 3081               	.L318:
 3082               	.LBE847:
 3083               	.LBE846:
 3084               	.LBB848:
 3085               	.LBB849:
 3086               	.LM403:
 3087 0d5c 8091 BB00 		lds r24,187
 3088               	.LVL198:
 3089 0d60 20E0      		ldi r18,lo8(0)
 3090 0d62 30E0      		ldi r19,hi8(0)
 3091               	.LVL199:
 3092 0d64 00C0      		rjmp .L320
 3093               	.LVL200:
 3094               	.L322:
 3095               	.LBE849:
 3096               	.LBE848:
 3097               	.LBB850:
 3098               	.LBB851:
 3099               	.LM404:
 3100 0d66 2F5F      		subi r18,lo8(-(1))
 3101 0d68 3F4F      		sbci r19,hi8(-(1))
 3102               	.LVL201:
 3103               	.L320:
 3104               	.LM405:
 3105 0d6a 8091 BC00 		lds r24,188
 3106               	.LVL202:
 3107 0d6e 87FD      		sbrc r24,7
 3108 0d70 00C0      		rjmp .L321
 3109 0d72 2A35      		cpi r18,90
 3110 0d74 3105      		cpc r19,__zero_reg__
 3111 0d76 01F4      		brne .L322
 3112               	.L321:
 3113               	.LBE851:
 3114               	.LBE850:
 3115               	.LBB852:
 3116               	.LBB853:
 3117               	.LM406:
 3118 0d78 84E9      		ldi r24,lo8(-108)
 3119 0d7a 8093 BC00 		sts 188,r24
 3120               	.LBE853:
 3121               	.LBE852:
 3122               	.LBB854:
 3123               	.LBB855:
 3124               	.LM407:
 3125 0d7e 3C9A      		sbi 39-32,4
 3126               	.LM408:
 3127 0d80 84EA      		ldi r24,lo8(-92)
 3128 0d82 8093 BC00 		sts 188,r24
 3129 0d86 20E0      		ldi r18,lo8(0)
 3130 0d88 30E0      		ldi r19,hi8(0)
 3131               	.LVL203:
 3132 0d8a 00C0      		rjmp .L323
 3133               	.L325:
 3134               	.LBE855:
 3135               	.LBE854:
 3136               	.LBB856:
 3137               	.LBB857:
 3138               	.LM409:
 3139 0d8c 2F5F      		subi r18,lo8(-(1))
 3140 0d8e 3F4F      		sbci r19,hi8(-(1))
 3141               	.L323:
 3142               	.LM410:
 3143 0d90 8091 BC00 		lds r24,188
 3144 0d94 87FD      		sbrc r24,7
 3145 0d96 00C0      		rjmp .L324
 3146 0d98 2A35      		cpi r18,90
 3147 0d9a 3105      		cpc r19,__zero_reg__
 3148 0d9c 01F4      		brne .L325
 3149               	.L324:
 3150               	.LBE857:
 3151               	.LBE856:
 3152               	.LM411:
 3153 0d9e 86EA      		ldi r24,lo8(-90)
 3154 0da0 0E94 0000 		call i2cSendByte
 3155               	.LVL204:
 3156 0da4 20E0      		ldi r18,lo8(0)
 3157 0da6 30E0      		ldi r19,hi8(0)
 3158               	.LVL205:
 3159 0da8 00C0      		rjmp .L326
 3160               	.L328:
 3161               	.LBB858:
 3162               	.LBB859:
 3163               	.LM412:
 3164 0daa 2F5F      		subi r18,lo8(-(1))
 3165 0dac 3F4F      		sbci r19,hi8(-(1))
 3166               	.L326:
 3167               	.LM413:
 3168 0dae 8091 BC00 		lds r24,188
 3169 0db2 87FD      		sbrc r24,7
 3170 0db4 00C0      		rjmp .L327
 3171 0db6 2A35      		cpi r18,90
 3172 0db8 3105      		cpc r19,__zero_reg__
 3173 0dba 01F4      		brne .L328
 3174               	.L327:
 3175               	.LBE859:
 3176               	.LBE858:
 3177               	.LM414:
 3178 0dbc 83E3      		ldi r24,lo8(51)
 3179 0dbe 0E94 0000 		call i2cSendByte
 3180               	.LVL206:
 3181 0dc2 20E0      		ldi r18,lo8(0)
 3182 0dc4 30E0      		ldi r19,hi8(0)
 3183               	.LVL207:
 3184 0dc6 00C0      		rjmp .L329
 3185               	.L331:
 3186               	.LBB860:
 3187               	.LBB861:
 3188               	.LM415:
 3189 0dc8 2F5F      		subi r18,lo8(-(1))
 3190 0dca 3F4F      		sbci r19,hi8(-(1))
 3191               	.L329:
 3192               	.LM416:
 3193 0dcc 8091 BC00 		lds r24,188
 3194 0dd0 87FD      		sbrc r24,7
 3195 0dd2 00C0      		rjmp .L330
 3196 0dd4 2A35      		cpi r18,90
 3197 0dd6 3105      		cpc r19,__zero_reg__
 3198 0dd8 01F4      		brne .L331
 3199               	.L330:
 3200               	.LBE861:
 3201               	.LBE860:
 3202               	.LBB862:
 3203               	.LBB863:
 3204               	.LM417:
 3205 0dda 84E9      		ldi r24,lo8(-108)
 3206 0ddc 8093 BC00 		sts 188,r24
 3207               	.LBE863:
 3208               	.LBE862:
 3209               	.LBB864:
 3210               	.LBB865:
 3211               	.LM418:
 3212 0de0 3C9A      		sbi 39-32,4
 3213               	.LM419:
 3214 0de2 84EA      		ldi r24,lo8(-92)
 3215 0de4 8093 BC00 		sts 188,r24
 3216 0de8 20E0      		ldi r18,lo8(0)
 3217 0dea 30E0      		ldi r19,hi8(0)
 3218               	.LVL208:
 3219 0dec 00C0      		rjmp .L332
 3220               	.L334:
 3221               	.LBE865:
 3222               	.LBE864:
 3223               	.LBB866:
 3224               	.LBB867:
 3225               	.LM420:
 3226 0dee 2F5F      		subi r18,lo8(-(1))
 3227 0df0 3F4F      		sbci r19,hi8(-(1))
 3228               	.L332:
 3229               	.LM421:
 3230 0df2 8091 BC00 		lds r24,188
 3231 0df6 87FD      		sbrc r24,7
 3232 0df8 00C0      		rjmp .L333
 3233 0dfa 2A35      		cpi r18,90
 3234 0dfc 3105      		cpc r19,__zero_reg__
 3235 0dfe 01F4      		brne .L334
 3236               	.L333:
 3237               	.LBE867:
 3238               	.LBE866:
 3239               	.LM422:
 3240 0e00 87EA      		ldi r24,lo8(-89)
 3241 0e02 0E94 0000 		call i2cSendByte
 3242               	.LVL209:
 3243 0e06 20E0      		ldi r18,lo8(0)
 3244 0e08 30E0      		ldi r19,hi8(0)
 3245               	.LVL210:
 3246 0e0a 00C0      		rjmp .L335
 3247               	.L337:
 3248               	.LBB868:
 3249               	.LBB869:
 3250               	.LM423:
 3251 0e0c 2F5F      		subi r18,lo8(-(1))
 3252 0e0e 3F4F      		sbci r19,hi8(-(1))
 3253               	.L335:
 3254               	.LM424:
 3255 0e10 8091 BC00 		lds r24,188
 3256 0e14 87FD      		sbrc r24,7
 3257 0e16 00C0      		rjmp .L336
 3258 0e18 2A35      		cpi r18,90
 3259 0e1a 3105      		cpc r19,__zero_reg__
 3260 0e1c 01F4      		brne .L337
 3261               	.L336:
 3262               	.LBE869:
 3263               	.LBE868:
 3264               	.LM425:
 3265 0e1e 8FEF      		ldi r24,lo8(-1)
 3266 0e20 0E94 0000 		call i2cReceiveByte
 3267               	.LVL211:
 3268 0e24 20E0      		ldi r18,lo8(0)
 3269 0e26 30E0      		ldi r19,hi8(0)
 3270               	.LVL212:
 3271 0e28 00C0      		rjmp .L338
 3272               	.L340:
 3273               	.LBB870:
 3274               	.LBB871:
 3275               	.LM426:
 3276 0e2a 2F5F      		subi r18,lo8(-(1))
 3277 0e2c 3F4F      		sbci r19,hi8(-(1))
 3278               	.L338:
 3279               	.LM427:
 3280 0e2e 8091 BC00 		lds r24,188
 3281 0e32 87FD      		sbrc r24,7
 3282 0e34 00C0      		rjmp .L339
 3283 0e36 2A35      		cpi r18,90
 3284 0e38 3105      		cpc r19,__zero_reg__
 3285 0e3a 01F4      		brne .L340
 3286               	.L339:
 3287               	.LBE871:
 3288               	.LBE870:
 3289               	.LBB872:
 3290               	.LBB873:
 3291               	.LM428:
 3292 0e3c 1091 BB00 		lds r17,187
 3293               	.LVL213:
 3294 0e40 20E0      		ldi r18,lo8(0)
 3295 0e42 30E0      		ldi r19,hi8(0)
 3296               	.LVL214:
 3297 0e44 00C0      		rjmp .L341
 3298               	.L343:
 3299               	.LBE873:
 3300               	.LBE872:
 3301               	.LBB874:
 3302               	.LBB875:
 3303               	.LM429:
 3304 0e46 2F5F      		subi r18,lo8(-(1))
 3305 0e48 3F4F      		sbci r19,hi8(-(1))
 3306               	.L341:
 3307               	.LM430:
 3308 0e4a 8091 BC00 		lds r24,188
 3309 0e4e 87FD      		sbrc r24,7
 3310 0e50 00C0      		rjmp .L342
 3311 0e52 2A35      		cpi r18,90
 3312 0e54 3105      		cpc r19,__zero_reg__
 3313 0e56 01F4      		brne .L343
 3314               	.L342:
 3315               	.LBE875:
 3316               	.LBE874:
 3317               	.LM431:
 3318 0e58 80E0      		ldi r24,lo8(0)
 3319 0e5a 0E94 0000 		call i2cReceiveByte
 3320               	.LVL215:
 3321 0e5e 20E0      		ldi r18,lo8(0)
 3322 0e60 30E0      		ldi r19,hi8(0)
 3323               	.LVL216:
 3324 0e62 00C0      		rjmp .L344
 3325               	.L346:
 3326               	.LBB876:
 3327               	.LBB877:
 3328               	.LM432:
 3329 0e64 2F5F      		subi r18,lo8(-(1))
 3330 0e66 3F4F      		sbci r19,hi8(-(1))
 3331               	.L344:
 3332               	.LM433:
 3333 0e68 8091 BC00 		lds r24,188
 3334 0e6c 87FD      		sbrc r24,7
 3335 0e6e 00C0      		rjmp .L345
 3336 0e70 2A35      		cpi r18,90
 3337 0e72 3105      		cpc r19,__zero_reg__
 3338 0e74 01F4      		brne .L346
 3339               	.L345:
 3340               	.LBE877:
 3341               	.LBE876:
 3342               	.LBB878:
 3343               	.LBB879:
 3344               	.LM434:
 3345 0e76 8091 BB00 		lds r24,187
 3346               	.LVL217:
 3347 0e7a 20E0      		ldi r18,lo8(0)
 3348 0e7c 30E0      		ldi r19,hi8(0)
 3349               	.LVL218:
 3350 0e7e 00C0      		rjmp .L347
 3351               	.LVL219:
 3352               	.L349:
 3353               	.LBE879:
 3354               	.LBE878:
 3355               	.LBB880:
 3356               	.LBB881:
 3357               	.LM435:
 3358 0e80 2F5F      		subi r18,lo8(-(1))
 3359 0e82 3F4F      		sbci r19,hi8(-(1))
 3360               	.LVL220:
 3361               	.L347:
 3362               	.LM436:
 3363 0e84 8091 BC00 		lds r24,188
 3364               	.LVL221:
 3365 0e88 87FD      		sbrc r24,7
 3366 0e8a 00C0      		rjmp .L348
 3367 0e8c 2A35      		cpi r18,90
 3368 0e8e 3105      		cpc r19,__zero_reg__
 3369 0e90 01F4      		brne .L349
 3370               	.L348:
 3371               	.LBE881:
 3372               	.LBE880:
 3373               	.LBB882:
 3374               	.LBB883:
 3375               	.LM437:
 3376 0e92 84E9      		ldi r24,lo8(-108)
 3377 0e94 8093 BC00 		sts 188,r24
 3378 0e98 912F      		mov r25,r17
 3379               	.LVL222:
 3380 0e9a 80E0      		ldi r24,lo8(0)
 3381               	.LVL223:
 3382 0e9c 202F      		mov r18,r16
 3383               	.LVL224:
 3384 0e9e 30E0      		ldi r19,lo8(0)
 3385 0ea0 282B      		or r18,r24
 3386 0ea2 392B      		or r19,r25
 3387               	.LBE883:
 3388               	.LBE882:
 3389               	.LM438:
 3390 0ea4 C901      		movw r24,r18
 3391               	.LVL225:
 3392               	/* epilogue start */
 3393 0ea6 1F91      		pop r17
 3394 0ea8 0F91      		pop r16
 3395               	.LVL226:
 3396 0eaa 0895      		ret
 3397               	.LFE32:
 3399               	.global	y_accel
 3401               	y_accel:
 3402               	.LFB33:
 3403               	.LM439:
 3404 0eac 0F93      		push r16
 3405 0eae 1F93      		push r17
 3406               	/* prologue: function */
 3407               	/* frame size = 0 */
 3408               	.LBB884:
 3409               	.LBB885:
 3410               	.LM440:
 3411 0eb0 3C9A      		sbi 39-32,4
 3412               	.LM441:
 3413 0eb2 84EA      		ldi r24,lo8(-92)
 3414 0eb4 8093 BC00 		sts 188,r24
 3415 0eb8 20E0      		ldi r18,lo8(0)
 3416 0eba 30E0      		ldi r19,hi8(0)
 3417               	.LVL227:
 3418 0ebc 00C0      		rjmp .L352
 3419               	.L354:
 3420               	.LBE885:
 3421               	.LBE884:
 3422               	.LBB886:
 3423               	.LBB887:
 3424               	.LM442:
 3425 0ebe 2F5F      		subi r18,lo8(-(1))
 3426 0ec0 3F4F      		sbci r19,hi8(-(1))
 3427               	.L352:
 3428               	.LM443:
 3429 0ec2 8091 BC00 		lds r24,188
 3430 0ec6 87FD      		sbrc r24,7
 3431 0ec8 00C0      		rjmp .L353
 3432 0eca 2A35      		cpi r18,90
 3433 0ecc 3105      		cpc r19,__zero_reg__
 3434 0ece 01F4      		brne .L354
 3435               	.L353:
 3436               	.LBE887:
 3437               	.LBE886:
 3438               	.LM444:
 3439 0ed0 86EA      		ldi r24,lo8(-90)
 3440 0ed2 0E94 0000 		call i2cSendByte
 3441               	.LVL228:
 3442 0ed6 20E0      		ldi r18,lo8(0)
 3443 0ed8 30E0      		ldi r19,hi8(0)
 3444               	.LVL229:
 3445 0eda 00C0      		rjmp .L355
 3446               	.L357:
 3447               	.LBB888:
 3448               	.LBB889:
 3449               	.LM445:
 3450 0edc 2F5F      		subi r18,lo8(-(1))
 3451 0ede 3F4F      		sbci r19,hi8(-(1))
 3452               	.L355:
 3453               	.LM446:
 3454 0ee0 8091 BC00 		lds r24,188
 3455 0ee4 87FD      		sbrc r24,7
 3456 0ee6 00C0      		rjmp .L356
 3457 0ee8 2A35      		cpi r18,90
 3458 0eea 3105      		cpc r19,__zero_reg__
 3459 0eec 01F4      		brne .L357
 3460               	.L356:
 3461               	.LBE889:
 3462               	.LBE888:
 3463               	.LM447:
 3464 0eee 84E3      		ldi r24,lo8(52)
 3465 0ef0 0E94 0000 		call i2cSendByte
 3466               	.LVL230:
 3467 0ef4 20E0      		ldi r18,lo8(0)
 3468 0ef6 30E0      		ldi r19,hi8(0)
 3469               	.LVL231:
 3470 0ef8 00C0      		rjmp .L358
 3471               	.L360:
 3472               	.LBB890:
 3473               	.LBB891:
 3474               	.LM448:
 3475 0efa 2F5F      		subi r18,lo8(-(1))
 3476 0efc 3F4F      		sbci r19,hi8(-(1))
 3477               	.L358:
 3478               	.LM449:
 3479 0efe 8091 BC00 		lds r24,188
 3480 0f02 87FD      		sbrc r24,7
 3481 0f04 00C0      		rjmp .L359
 3482 0f06 2A35      		cpi r18,90
 3483 0f08 3105      		cpc r19,__zero_reg__
 3484 0f0a 01F4      		brne .L360
 3485               	.L359:
 3486               	.LBE891:
 3487               	.LBE890:
 3488               	.LBB892:
 3489               	.LBB893:
 3490               	.LM450:
 3491 0f0c 84E9      		ldi r24,lo8(-108)
 3492 0f0e 8093 BC00 		sts 188,r24
 3493               	.LBE893:
 3494               	.LBE892:
 3495               	.LBB894:
 3496               	.LBB895:
 3497               	.LM451:
 3498 0f12 3C9A      		sbi 39-32,4
 3499               	.LM452:
 3500 0f14 84EA      		ldi r24,lo8(-92)
 3501 0f16 8093 BC00 		sts 188,r24
 3502 0f1a 20E0      		ldi r18,lo8(0)
 3503 0f1c 30E0      		ldi r19,hi8(0)
 3504               	.LVL232:
 3505 0f1e 00C0      		rjmp .L361
 3506               	.L363:
 3507               	.LBE895:
 3508               	.LBE894:
 3509               	.LBB896:
 3510               	.LBB897:
 3511               	.LM453:
 3512 0f20 2F5F      		subi r18,lo8(-(1))
 3513 0f22 3F4F      		sbci r19,hi8(-(1))
 3514               	.L361:
 3515               	.LM454:
 3516 0f24 8091 BC00 		lds r24,188
 3517 0f28 87FD      		sbrc r24,7
 3518 0f2a 00C0      		rjmp .L362
 3519 0f2c 2A35      		cpi r18,90
 3520 0f2e 3105      		cpc r19,__zero_reg__
 3521 0f30 01F4      		brne .L363
 3522               	.L362:
 3523               	.LBE897:
 3524               	.LBE896:
 3525               	.LM455:
 3526 0f32 87EA      		ldi r24,lo8(-89)
 3527 0f34 0E94 0000 		call i2cSendByte
 3528               	.LVL233:
 3529 0f38 20E0      		ldi r18,lo8(0)
 3530 0f3a 30E0      		ldi r19,hi8(0)
 3531               	.LVL234:
 3532 0f3c 00C0      		rjmp .L364
 3533               	.L366:
 3534               	.LBB898:
 3535               	.LBB899:
 3536               	.LM456:
 3537 0f3e 2F5F      		subi r18,lo8(-(1))
 3538 0f40 3F4F      		sbci r19,hi8(-(1))
 3539               	.L364:
 3540               	.LM457:
 3541 0f42 8091 BC00 		lds r24,188
 3542 0f46 87FD      		sbrc r24,7
 3543 0f48 00C0      		rjmp .L365
 3544 0f4a 2A35      		cpi r18,90
 3545 0f4c 3105      		cpc r19,__zero_reg__
 3546 0f4e 01F4      		brne .L366
 3547               	.L365:
 3548               	.LBE899:
 3549               	.LBE898:
 3550               	.LM458:
 3551 0f50 8FEF      		ldi r24,lo8(-1)
 3552 0f52 0E94 0000 		call i2cReceiveByte
 3553               	.LVL235:
 3554 0f56 20E0      		ldi r18,lo8(0)
 3555 0f58 30E0      		ldi r19,hi8(0)
 3556               	.LVL236:
 3557 0f5a 00C0      		rjmp .L367
 3558               	.L369:
 3559               	.LBB900:
 3560               	.LBB901:
 3561               	.LM459:
 3562 0f5c 2F5F      		subi r18,lo8(-(1))
 3563 0f5e 3F4F      		sbci r19,hi8(-(1))
 3564               	.L367:
 3565               	.LM460:
 3566 0f60 8091 BC00 		lds r24,188
 3567 0f64 87FD      		sbrc r24,7
 3568 0f66 00C0      		rjmp .L368
 3569 0f68 2A35      		cpi r18,90
 3570 0f6a 3105      		cpc r19,__zero_reg__
 3571 0f6c 01F4      		brne .L369
 3572               	.L368:
 3573               	.LBE901:
 3574               	.LBE900:
 3575               	.LBB902:
 3576               	.LBB903:
 3577               	.LM461:
 3578 0f6e 0091 BB00 		lds r16,187
 3579               	.LVL237:
 3580 0f72 20E0      		ldi r18,lo8(0)
 3581 0f74 30E0      		ldi r19,hi8(0)
 3582               	.LVL238:
 3583 0f76 00C0      		rjmp .L370
 3584               	.L372:
 3585               	.LBE903:
 3586               	.LBE902:
 3587               	.LBB904:
 3588               	.LBB905:
 3589               	.LM462:
 3590 0f78 2F5F      		subi r18,lo8(-(1))
 3591 0f7a 3F4F      		sbci r19,hi8(-(1))
 3592               	.L370:
 3593               	.LM463:
 3594 0f7c 8091 BC00 		lds r24,188
 3595 0f80 87FD      		sbrc r24,7
 3596 0f82 00C0      		rjmp .L371
 3597 0f84 2A35      		cpi r18,90
 3598 0f86 3105      		cpc r19,__zero_reg__
 3599 0f88 01F4      		brne .L372
 3600               	.L371:
 3601               	.LBE905:
 3602               	.LBE904:
 3603               	.LM464:
 3604 0f8a 80E0      		ldi r24,lo8(0)
 3605 0f8c 0E94 0000 		call i2cReceiveByte
 3606               	.LVL239:
 3607 0f90 20E0      		ldi r18,lo8(0)
 3608 0f92 30E0      		ldi r19,hi8(0)
 3609               	.LVL240:
 3610 0f94 00C0      		rjmp .L373
 3611               	.L375:
 3612               	.LBB906:
 3613               	.LBB907:
 3614               	.LM465:
 3615 0f96 2F5F      		subi r18,lo8(-(1))
 3616 0f98 3F4F      		sbci r19,hi8(-(1))
 3617               	.L373:
 3618               	.LM466:
 3619 0f9a 8091 BC00 		lds r24,188
 3620 0f9e 87FD      		sbrc r24,7
 3621 0fa0 00C0      		rjmp .L374
 3622 0fa2 2A35      		cpi r18,90
 3623 0fa4 3105      		cpc r19,__zero_reg__
 3624 0fa6 01F4      		brne .L375
 3625               	.L374:
 3626               	.LBE907:
 3627               	.LBE906:
 3628               	.LBB908:
 3629               	.LBB909:
 3630               	.LM467:
 3631 0fa8 8091 BB00 		lds r24,187
 3632               	.LVL241:
 3633 0fac 20E0      		ldi r18,lo8(0)
 3634 0fae 30E0      		ldi r19,hi8(0)
 3635               	.LVL242:
 3636 0fb0 00C0      		rjmp .L376
 3637               	.LVL243:
 3638               	.L378:
 3639               	.LBE909:
 3640               	.LBE908:
 3641               	.LBB910:
 3642               	.LBB911:
 3643               	.LM468:
 3644 0fb2 2F5F      		subi r18,lo8(-(1))
 3645 0fb4 3F4F      		sbci r19,hi8(-(1))
 3646               	.LVL244:
 3647               	.L376:
 3648               	.LM469:
 3649 0fb6 8091 BC00 		lds r24,188
 3650               	.LVL245:
 3651 0fba 87FD      		sbrc r24,7
 3652 0fbc 00C0      		rjmp .L377
 3653 0fbe 2A35      		cpi r18,90
 3654 0fc0 3105      		cpc r19,__zero_reg__
 3655 0fc2 01F4      		brne .L378
 3656               	.L377:
 3657               	.LBE911:
 3658               	.LBE910:
 3659               	.LBB912:
 3660               	.LBB913:
 3661               	.LM470:
 3662 0fc4 84E9      		ldi r24,lo8(-108)
 3663 0fc6 8093 BC00 		sts 188,r24
 3664               	.LBE913:
 3665               	.LBE912:
 3666               	.LBB914:
 3667               	.LBB915:
 3668               	.LM471:
 3669 0fca 3C9A      		sbi 39-32,4
 3670               	.LM472:
 3671 0fcc 84EA      		ldi r24,lo8(-92)
 3672 0fce 8093 BC00 		sts 188,r24
 3673 0fd2 20E0      		ldi r18,lo8(0)
 3674 0fd4 30E0      		ldi r19,hi8(0)
 3675               	.LVL246:
 3676 0fd6 00C0      		rjmp .L379
 3677               	.L381:
 3678               	.LBE915:
 3679               	.LBE914:
 3680               	.LBB916:
 3681               	.LBB917:
 3682               	.LM473:
 3683 0fd8 2F5F      		subi r18,lo8(-(1))
 3684 0fda 3F4F      		sbci r19,hi8(-(1))
 3685               	.L379:
 3686               	.LM474:
 3687 0fdc 8091 BC00 		lds r24,188
 3688 0fe0 87FD      		sbrc r24,7
 3689 0fe2 00C0      		rjmp .L380
 3690 0fe4 2A35      		cpi r18,90
 3691 0fe6 3105      		cpc r19,__zero_reg__
 3692 0fe8 01F4      		brne .L381
 3693               	.L380:
 3694               	.LBE917:
 3695               	.LBE916:
 3696               	.LM475:
 3697 0fea 86EA      		ldi r24,lo8(-90)
 3698 0fec 0E94 0000 		call i2cSendByte
 3699               	.LVL247:
 3700 0ff0 20E0      		ldi r18,lo8(0)
 3701 0ff2 30E0      		ldi r19,hi8(0)
 3702               	.LVL248:
 3703 0ff4 00C0      		rjmp .L382
 3704               	.L384:
 3705               	.LBB918:
 3706               	.LBB919:
 3707               	.LM476:
 3708 0ff6 2F5F      		subi r18,lo8(-(1))
 3709 0ff8 3F4F      		sbci r19,hi8(-(1))
 3710               	.L382:
 3711               	.LM477:
 3712 0ffa 8091 BC00 		lds r24,188
 3713 0ffe 87FD      		sbrc r24,7
 3714 1000 00C0      		rjmp .L383
 3715 1002 2A35      		cpi r18,90
 3716 1004 3105      		cpc r19,__zero_reg__
 3717 1006 01F4      		brne .L384
 3718               	.L383:
 3719               	.LBE919:
 3720               	.LBE918:
 3721               	.LM478:
 3722 1008 85E3      		ldi r24,lo8(53)
 3723 100a 0E94 0000 		call i2cSendByte
 3724               	.LVL249:
 3725 100e 20E0      		ldi r18,lo8(0)
 3726 1010 30E0      		ldi r19,hi8(0)
 3727               	.LVL250:
 3728 1012 00C0      		rjmp .L385
 3729               	.L387:
 3730               	.LBB920:
 3731               	.LBB921:
 3732               	.LM479:
 3733 1014 2F5F      		subi r18,lo8(-(1))
 3734 1016 3F4F      		sbci r19,hi8(-(1))
 3735               	.L385:
 3736               	.LM480:
 3737 1018 8091 BC00 		lds r24,188
 3738 101c 87FD      		sbrc r24,7
 3739 101e 00C0      		rjmp .L386
 3740 1020 2A35      		cpi r18,90
 3741 1022 3105      		cpc r19,__zero_reg__
 3742 1024 01F4      		brne .L387
 3743               	.L386:
 3744               	.LBE921:
 3745               	.LBE920:
 3746               	.LBB922:
 3747               	.LBB923:
 3748               	.LM481:
 3749 1026 84E9      		ldi r24,lo8(-108)
 3750 1028 8093 BC00 		sts 188,r24
 3751               	.LBE923:
 3752               	.LBE922:
 3753               	.LBB924:
 3754               	.LBB925:
 3755               	.LM482:
 3756 102c 3C9A      		sbi 39-32,4
 3757               	.LM483:
 3758 102e 84EA      		ldi r24,lo8(-92)
 3759 1030 8093 BC00 		sts 188,r24
 3760 1034 20E0      		ldi r18,lo8(0)
 3761 1036 30E0      		ldi r19,hi8(0)
 3762               	.LVL251:
 3763 1038 00C0      		rjmp .L388
 3764               	.L390:
 3765               	.LBE925:
 3766               	.LBE924:
 3767               	.LBB926:
 3768               	.LBB927:
 3769               	.LM484:
 3770 103a 2F5F      		subi r18,lo8(-(1))
 3771 103c 3F4F      		sbci r19,hi8(-(1))
 3772               	.L388:
 3773               	.LM485:
 3774 103e 8091 BC00 		lds r24,188
 3775 1042 87FD      		sbrc r24,7
 3776 1044 00C0      		rjmp .L389
 3777 1046 2A35      		cpi r18,90
 3778 1048 3105      		cpc r19,__zero_reg__
 3779 104a 01F4      		brne .L390
 3780               	.L389:
 3781               	.LBE927:
 3782               	.LBE926:
 3783               	.LM486:
 3784 104c 87EA      		ldi r24,lo8(-89)
 3785 104e 0E94 0000 		call i2cSendByte
 3786               	.LVL252:
 3787 1052 20E0      		ldi r18,lo8(0)
 3788 1054 30E0      		ldi r19,hi8(0)
 3789               	.LVL253:
 3790 1056 00C0      		rjmp .L391
 3791               	.L393:
 3792               	.LBB928:
 3793               	.LBB929:
 3794               	.LM487:
 3795 1058 2F5F      		subi r18,lo8(-(1))
 3796 105a 3F4F      		sbci r19,hi8(-(1))
 3797               	.L391:
 3798               	.LM488:
 3799 105c 8091 BC00 		lds r24,188
 3800 1060 87FD      		sbrc r24,7
 3801 1062 00C0      		rjmp .L392
 3802 1064 2A35      		cpi r18,90
 3803 1066 3105      		cpc r19,__zero_reg__
 3804 1068 01F4      		brne .L393
 3805               	.L392:
 3806               	.LBE929:
 3807               	.LBE928:
 3808               	.LM489:
 3809 106a 8FEF      		ldi r24,lo8(-1)
 3810 106c 0E94 0000 		call i2cReceiveByte
 3811               	.LVL254:
 3812 1070 20E0      		ldi r18,lo8(0)
 3813 1072 30E0      		ldi r19,hi8(0)
 3814               	.LVL255:
 3815 1074 00C0      		rjmp .L394
 3816               	.L396:
 3817               	.LBB930:
 3818               	.LBB931:
 3819               	.LM490:
 3820 1076 2F5F      		subi r18,lo8(-(1))
 3821 1078 3F4F      		sbci r19,hi8(-(1))
 3822               	.L394:
 3823               	.LM491:
 3824 107a 8091 BC00 		lds r24,188
 3825 107e 87FD      		sbrc r24,7
 3826 1080 00C0      		rjmp .L395
 3827 1082 2A35      		cpi r18,90
 3828 1084 3105      		cpc r19,__zero_reg__
 3829 1086 01F4      		brne .L396
 3830               	.L395:
 3831               	.LBE931:
 3832               	.LBE930:
 3833               	.LBB932:
 3834               	.LBB933:
 3835               	.LM492:
 3836 1088 1091 BB00 		lds r17,187
 3837               	.LVL256:
 3838 108c 20E0      		ldi r18,lo8(0)
 3839 108e 30E0      		ldi r19,hi8(0)
 3840               	.LVL257:
 3841 1090 00C0      		rjmp .L397
 3842               	.L399:
 3843               	.LBE933:
 3844               	.LBE932:
 3845               	.LBB934:
 3846               	.LBB935:
 3847               	.LM493:
 3848 1092 2F5F      		subi r18,lo8(-(1))
 3849 1094 3F4F      		sbci r19,hi8(-(1))
 3850               	.L397:
 3851               	.LM494:
 3852 1096 8091 BC00 		lds r24,188
 3853 109a 87FD      		sbrc r24,7
 3854 109c 00C0      		rjmp .L398
 3855 109e 2A35      		cpi r18,90
 3856 10a0 3105      		cpc r19,__zero_reg__
 3857 10a2 01F4      		brne .L399
 3858               	.L398:
 3859               	.LBE935:
 3860               	.LBE934:
 3861               	.LM495:
 3862 10a4 80E0      		ldi r24,lo8(0)
 3863 10a6 0E94 0000 		call i2cReceiveByte
 3864               	.LVL258:
 3865 10aa 20E0      		ldi r18,lo8(0)
 3866 10ac 30E0      		ldi r19,hi8(0)
 3867               	.LVL259:
 3868 10ae 00C0      		rjmp .L400
 3869               	.L402:
 3870               	.LBB936:
 3871               	.LBB937:
 3872               	.LM496:
 3873 10b0 2F5F      		subi r18,lo8(-(1))
 3874 10b2 3F4F      		sbci r19,hi8(-(1))
 3875               	.L400:
 3876               	.LM497:
 3877 10b4 8091 BC00 		lds r24,188
 3878 10b8 87FD      		sbrc r24,7
 3879 10ba 00C0      		rjmp .L401
 3880 10bc 2A35      		cpi r18,90
 3881 10be 3105      		cpc r19,__zero_reg__
 3882 10c0 01F4      		brne .L402
 3883               	.L401:
 3884               	.LBE937:
 3885               	.LBE936:
 3886               	.LBB938:
 3887               	.LBB939:
 3888               	.LM498:
 3889 10c2 8091 BB00 		lds r24,187
 3890               	.LVL260:
 3891 10c6 20E0      		ldi r18,lo8(0)
 3892 10c8 30E0      		ldi r19,hi8(0)
 3893               	.LVL261:
 3894 10ca 00C0      		rjmp .L403
 3895               	.LVL262:
 3896               	.L405:
 3897               	.LBE939:
 3898               	.LBE938:
 3899               	.LBB940:
 3900               	.LBB941:
 3901               	.LM499:
 3902 10cc 2F5F      		subi r18,lo8(-(1))
 3903 10ce 3F4F      		sbci r19,hi8(-(1))
 3904               	.LVL263:
 3905               	.L403:
 3906               	.LM500:
 3907 10d0 8091 BC00 		lds r24,188
 3908               	.LVL264:
 3909 10d4 87FD      		sbrc r24,7
 3910 10d6 00C0      		rjmp .L404
 3911 10d8 2A35      		cpi r18,90
 3912 10da 3105      		cpc r19,__zero_reg__
 3913 10dc 01F4      		brne .L405
 3914               	.L404:
 3915               	.LBE941:
 3916               	.LBE940:
 3917               	.LBB942:
 3918               	.LBB943:
 3919               	.LM501:
 3920 10de 84E9      		ldi r24,lo8(-108)
 3921 10e0 8093 BC00 		sts 188,r24
 3922 10e4 912F      		mov r25,r17
 3923               	.LVL265:
 3924 10e6 80E0      		ldi r24,lo8(0)
 3925               	.LVL266:
 3926 10e8 202F      		mov r18,r16
 3927               	.LVL267:
 3928 10ea 30E0      		ldi r19,lo8(0)
 3929 10ec 282B      		or r18,r24
 3930 10ee 392B      		or r19,r25
 3931               	.LBE943:
 3932               	.LBE942:
 3933               	.LM502:
 3934 10f0 C901      		movw r24,r18
 3935               	.LVL268:
 3936               	/* epilogue start */
 3937 10f2 1F91      		pop r17
 3938 10f4 0F91      		pop r16
 3939               	.LVL269:
 3940 10f6 0895      		ret
 3941               	.LFE33:
 3943               	.global	z_accel
 3945               	z_accel:
 3946               	.LFB34:
 3947               	.LM503:
 3948 10f8 0F93      		push r16
 3949 10fa 1F93      		push r17
 3950               	/* prologue: function */
 3951               	/* frame size = 0 */
 3952               	.LBB944:
 3953               	.LBB945:
 3954               	.LM504:
 3955 10fc 3C9A      		sbi 39-32,4
 3956               	.LM505:
 3957 10fe 84EA      		ldi r24,lo8(-92)
 3958 1100 8093 BC00 		sts 188,r24
 3959 1104 20E0      		ldi r18,lo8(0)
 3960 1106 30E0      		ldi r19,hi8(0)
 3961               	.LVL270:
 3962 1108 00C0      		rjmp .L408
 3963               	.L410:
 3964               	.LBE945:
 3965               	.LBE944:
 3966               	.LBB946:
 3967               	.LBB947:
 3968               	.LM506:
 3969 110a 2F5F      		subi r18,lo8(-(1))
 3970 110c 3F4F      		sbci r19,hi8(-(1))
 3971               	.L408:
 3972               	.LM507:
 3973 110e 8091 BC00 		lds r24,188
 3974 1112 87FD      		sbrc r24,7
 3975 1114 00C0      		rjmp .L409
 3976 1116 2A35      		cpi r18,90
 3977 1118 3105      		cpc r19,__zero_reg__
 3978 111a 01F4      		brne .L410
 3979               	.L409:
 3980               	.LBE947:
 3981               	.LBE946:
 3982               	.LM508:
 3983 111c 86EA      		ldi r24,lo8(-90)
 3984 111e 0E94 0000 		call i2cSendByte
 3985               	.LVL271:
 3986 1122 20E0      		ldi r18,lo8(0)
 3987 1124 30E0      		ldi r19,hi8(0)
 3988               	.LVL272:
 3989 1126 00C0      		rjmp .L411
 3990               	.L413:
 3991               	.LBB948:
 3992               	.LBB949:
 3993               	.LM509:
 3994 1128 2F5F      		subi r18,lo8(-(1))
 3995 112a 3F4F      		sbci r19,hi8(-(1))
 3996               	.L411:
 3997               	.LM510:
 3998 112c 8091 BC00 		lds r24,188
 3999 1130 87FD      		sbrc r24,7
 4000 1132 00C0      		rjmp .L412
 4001 1134 2A35      		cpi r18,90
 4002 1136 3105      		cpc r19,__zero_reg__
 4003 1138 01F4      		brne .L413
 4004               	.L412:
 4005               	.LBE949:
 4006               	.LBE948:
 4007               	.LM511:
 4008 113a 86E3      		ldi r24,lo8(54)
 4009 113c 0E94 0000 		call i2cSendByte
 4010               	.LVL273:
 4011 1140 20E0      		ldi r18,lo8(0)
 4012 1142 30E0      		ldi r19,hi8(0)
 4013               	.LVL274:
 4014 1144 00C0      		rjmp .L414
 4015               	.L416:
 4016               	.LBB950:
 4017               	.LBB951:
 4018               	.LM512:
 4019 1146 2F5F      		subi r18,lo8(-(1))
 4020 1148 3F4F      		sbci r19,hi8(-(1))
 4021               	.L414:
 4022               	.LM513:
 4023 114a 8091 BC00 		lds r24,188
 4024 114e 87FD      		sbrc r24,7
 4025 1150 00C0      		rjmp .L415
 4026 1152 2A35      		cpi r18,90
 4027 1154 3105      		cpc r19,__zero_reg__
 4028 1156 01F4      		brne .L416
 4029               	.L415:
 4030               	.LBE951:
 4031               	.LBE950:
 4032               	.LBB952:
 4033               	.LBB953:
 4034               	.LM514:
 4035 1158 84E9      		ldi r24,lo8(-108)
 4036 115a 8093 BC00 		sts 188,r24
 4037               	.LBE953:
 4038               	.LBE952:
 4039               	.LBB954:
 4040               	.LBB955:
 4041               	.LM515:
 4042 115e 3C9A      		sbi 39-32,4
 4043               	.LM516:
 4044 1160 84EA      		ldi r24,lo8(-92)
 4045 1162 8093 BC00 		sts 188,r24
 4046 1166 20E0      		ldi r18,lo8(0)
 4047 1168 30E0      		ldi r19,hi8(0)
 4048               	.LVL275:
 4049 116a 00C0      		rjmp .L417
 4050               	.L419:
 4051               	.LBE955:
 4052               	.LBE954:
 4053               	.LBB956:
 4054               	.LBB957:
 4055               	.LM517:
 4056 116c 2F5F      		subi r18,lo8(-(1))
 4057 116e 3F4F      		sbci r19,hi8(-(1))
 4058               	.L417:
 4059               	.LM518:
 4060 1170 8091 BC00 		lds r24,188
 4061 1174 87FD      		sbrc r24,7
 4062 1176 00C0      		rjmp .L418
 4063 1178 2A35      		cpi r18,90
 4064 117a 3105      		cpc r19,__zero_reg__
 4065 117c 01F4      		brne .L419
 4066               	.L418:
 4067               	.LBE957:
 4068               	.LBE956:
 4069               	.LM519:
 4070 117e 87EA      		ldi r24,lo8(-89)
 4071 1180 0E94 0000 		call i2cSendByte
 4072               	.LVL276:
 4073 1184 20E0      		ldi r18,lo8(0)
 4074 1186 30E0      		ldi r19,hi8(0)
 4075               	.LVL277:
 4076 1188 00C0      		rjmp .L420
 4077               	.L422:
 4078               	.LBB958:
 4079               	.LBB959:
 4080               	.LM520:
 4081 118a 2F5F      		subi r18,lo8(-(1))
 4082 118c 3F4F      		sbci r19,hi8(-(1))
 4083               	.L420:
 4084               	.LM521:
 4085 118e 8091 BC00 		lds r24,188
 4086 1192 87FD      		sbrc r24,7
 4087 1194 00C0      		rjmp .L421
 4088 1196 2A35      		cpi r18,90
 4089 1198 3105      		cpc r19,__zero_reg__
 4090 119a 01F4      		brne .L422
 4091               	.L421:
 4092               	.LBE959:
 4093               	.LBE958:
 4094               	.LM522:
 4095 119c 8FEF      		ldi r24,lo8(-1)
 4096 119e 0E94 0000 		call i2cReceiveByte
 4097               	.LVL278:
 4098 11a2 20E0      		ldi r18,lo8(0)
 4099 11a4 30E0      		ldi r19,hi8(0)
 4100               	.LVL279:
 4101 11a6 00C0      		rjmp .L423
 4102               	.L425:
 4103               	.LBB960:
 4104               	.LBB961:
 4105               	.LM523:
 4106 11a8 2F5F      		subi r18,lo8(-(1))
 4107 11aa 3F4F      		sbci r19,hi8(-(1))
 4108               	.L423:
 4109               	.LM524:
 4110 11ac 8091 BC00 		lds r24,188
 4111 11b0 87FD      		sbrc r24,7
 4112 11b2 00C0      		rjmp .L424
 4113 11b4 2A35      		cpi r18,90
 4114 11b6 3105      		cpc r19,__zero_reg__
 4115 11b8 01F4      		brne .L425
 4116               	.L424:
 4117               	.LBE961:
 4118               	.LBE960:
 4119               	.LBB962:
 4120               	.LBB963:
 4121               	.LM525:
 4122 11ba 0091 BB00 		lds r16,187
 4123               	.LVL280:
 4124 11be 20E0      		ldi r18,lo8(0)
 4125 11c0 30E0      		ldi r19,hi8(0)
 4126               	.LVL281:
 4127 11c2 00C0      		rjmp .L426
 4128               	.L428:
 4129               	.LBE963:
 4130               	.LBE962:
 4131               	.LBB964:
 4132               	.LBB965:
 4133               	.LM526:
 4134 11c4 2F5F      		subi r18,lo8(-(1))
 4135 11c6 3F4F      		sbci r19,hi8(-(1))
 4136               	.L426:
 4137               	.LM527:
 4138 11c8 8091 BC00 		lds r24,188
 4139 11cc 87FD      		sbrc r24,7
 4140 11ce 00C0      		rjmp .L427
 4141 11d0 2A35      		cpi r18,90
 4142 11d2 3105      		cpc r19,__zero_reg__
 4143 11d4 01F4      		brne .L428
 4144               	.L427:
 4145               	.LBE965:
 4146               	.LBE964:
 4147               	.LM528:
 4148 11d6 80E0      		ldi r24,lo8(0)
 4149 11d8 0E94 0000 		call i2cReceiveByte
 4150               	.LVL282:
 4151 11dc 20E0      		ldi r18,lo8(0)
 4152 11de 30E0      		ldi r19,hi8(0)
 4153               	.LVL283:
 4154 11e0 00C0      		rjmp .L429
 4155               	.L431:
 4156               	.LBB966:
 4157               	.LBB967:
 4158               	.LM529:
 4159 11e2 2F5F      		subi r18,lo8(-(1))
 4160 11e4 3F4F      		sbci r19,hi8(-(1))
 4161               	.L429:
 4162               	.LM530:
 4163 11e6 8091 BC00 		lds r24,188
 4164 11ea 87FD      		sbrc r24,7
 4165 11ec 00C0      		rjmp .L430
 4166 11ee 2A35      		cpi r18,90
 4167 11f0 3105      		cpc r19,__zero_reg__
 4168 11f2 01F4      		brne .L431
 4169               	.L430:
 4170               	.LBE967:
 4171               	.LBE966:
 4172               	.LBB968:
 4173               	.LBB969:
 4174               	.LM531:
 4175 11f4 8091 BB00 		lds r24,187
 4176               	.LVL284:
 4177 11f8 20E0      		ldi r18,lo8(0)
 4178 11fa 30E0      		ldi r19,hi8(0)
 4179               	.LVL285:
 4180 11fc 00C0      		rjmp .L432
 4181               	.LVL286:
 4182               	.L434:
 4183               	.LBE969:
 4184               	.LBE968:
 4185               	.LBB970:
 4186               	.LBB971:
 4187               	.LM532:
 4188 11fe 2F5F      		subi r18,lo8(-(1))
 4189 1200 3F4F      		sbci r19,hi8(-(1))
 4190               	.LVL287:
 4191               	.L432:
 4192               	.LM533:
 4193 1202 8091 BC00 		lds r24,188
 4194               	.LVL288:
 4195 1206 87FD      		sbrc r24,7
 4196 1208 00C0      		rjmp .L433
 4197 120a 2A35      		cpi r18,90
 4198 120c 3105      		cpc r19,__zero_reg__
 4199 120e 01F4      		brne .L434
 4200               	.L433:
 4201               	.LBE971:
 4202               	.LBE970:
 4203               	.LBB972:
 4204               	.LBB973:
 4205               	.LM534:
 4206 1210 84E9      		ldi r24,lo8(-108)
 4207 1212 8093 BC00 		sts 188,r24
 4208               	.LBE973:
 4209               	.LBE972:
 4210               	.LBB974:
 4211               	.LBB975:
 4212               	.LM535:
 4213 1216 3C9A      		sbi 39-32,4
 4214               	.LM536:
 4215 1218 84EA      		ldi r24,lo8(-92)
 4216 121a 8093 BC00 		sts 188,r24
 4217 121e 20E0      		ldi r18,lo8(0)
 4218 1220 30E0      		ldi r19,hi8(0)
 4219               	.LVL289:
 4220 1222 00C0      		rjmp .L435
 4221               	.L437:
 4222               	.LBE975:
 4223               	.LBE974:
 4224               	.LBB976:
 4225               	.LBB977:
 4226               	.LM537:
 4227 1224 2F5F      		subi r18,lo8(-(1))
 4228 1226 3F4F      		sbci r19,hi8(-(1))
 4229               	.L435:
 4230               	.LM538:
 4231 1228 8091 BC00 		lds r24,188
 4232 122c 87FD      		sbrc r24,7
 4233 122e 00C0      		rjmp .L436
 4234 1230 2A35      		cpi r18,90
 4235 1232 3105      		cpc r19,__zero_reg__
 4236 1234 01F4      		brne .L437
 4237               	.L436:
 4238               	.LBE977:
 4239               	.LBE976:
 4240               	.LM539:
 4241 1236 86EA      		ldi r24,lo8(-90)
 4242 1238 0E94 0000 		call i2cSendByte
 4243               	.LVL290:
 4244 123c 20E0      		ldi r18,lo8(0)
 4245 123e 30E0      		ldi r19,hi8(0)
 4246               	.LVL291:
 4247 1240 00C0      		rjmp .L438
 4248               	.L440:
 4249               	.LBB978:
 4250               	.LBB979:
 4251               	.LM540:
 4252 1242 2F5F      		subi r18,lo8(-(1))
 4253 1244 3F4F      		sbci r19,hi8(-(1))
 4254               	.L438:
 4255               	.LM541:
 4256 1246 8091 BC00 		lds r24,188
 4257 124a 87FD      		sbrc r24,7
 4258 124c 00C0      		rjmp .L439
 4259 124e 2A35      		cpi r18,90
 4260 1250 3105      		cpc r19,__zero_reg__
 4261 1252 01F4      		brne .L440
 4262               	.L439:
 4263               	.LBE979:
 4264               	.LBE978:
 4265               	.LM542:
 4266 1254 87E3      		ldi r24,lo8(55)
 4267 1256 0E94 0000 		call i2cSendByte
 4268               	.LVL292:
 4269 125a 20E0      		ldi r18,lo8(0)
 4270 125c 30E0      		ldi r19,hi8(0)
 4271               	.LVL293:
 4272 125e 00C0      		rjmp .L441
 4273               	.L443:
 4274               	.LBB980:
 4275               	.LBB981:
 4276               	.LM543:
 4277 1260 2F5F      		subi r18,lo8(-(1))
 4278 1262 3F4F      		sbci r19,hi8(-(1))
 4279               	.L441:
 4280               	.LM544:
 4281 1264 8091 BC00 		lds r24,188
 4282 1268 87FD      		sbrc r24,7
 4283 126a 00C0      		rjmp .L442
 4284 126c 2A35      		cpi r18,90
 4285 126e 3105      		cpc r19,__zero_reg__
 4286 1270 01F4      		brne .L443
 4287               	.L442:
 4288               	.LBE981:
 4289               	.LBE980:
 4290               	.LBB982:
 4291               	.LBB983:
 4292               	.LM545:
 4293 1272 84E9      		ldi r24,lo8(-108)
 4294 1274 8093 BC00 		sts 188,r24
 4295               	.LBE983:
 4296               	.LBE982:
 4297               	.LBB984:
 4298               	.LBB985:
 4299               	.LM546:
 4300 1278 3C9A      		sbi 39-32,4
 4301               	.LM547:
 4302 127a 84EA      		ldi r24,lo8(-92)
 4303 127c 8093 BC00 		sts 188,r24
 4304 1280 20E0      		ldi r18,lo8(0)
 4305 1282 30E0      		ldi r19,hi8(0)
 4306               	.LVL294:
 4307 1284 00C0      		rjmp .L444
 4308               	.L446:
 4309               	.LBE985:
 4310               	.LBE984:
 4311               	.LBB986:
 4312               	.LBB987:
 4313               	.LM548:
 4314 1286 2F5F      		subi r18,lo8(-(1))
 4315 1288 3F4F      		sbci r19,hi8(-(1))
 4316               	.L444:
 4317               	.LM549:
 4318 128a 8091 BC00 		lds r24,188
 4319 128e 87FD      		sbrc r24,7
 4320 1290 00C0      		rjmp .L445
 4321 1292 2A35      		cpi r18,90
 4322 1294 3105      		cpc r19,__zero_reg__
 4323 1296 01F4      		brne .L446
 4324               	.L445:
 4325               	.LBE987:
 4326               	.LBE986:
 4327               	.LM550:
 4328 1298 87EA      		ldi r24,lo8(-89)
 4329 129a 0E94 0000 		call i2cSendByte
 4330               	.LVL295:
 4331 129e 20E0      		ldi r18,lo8(0)
 4332 12a0 30E0      		ldi r19,hi8(0)
 4333               	.LVL296:
 4334 12a2 00C0      		rjmp .L447
 4335               	.L449:
 4336               	.LBB988:
 4337               	.LBB989:
 4338               	.LM551:
 4339 12a4 2F5F      		subi r18,lo8(-(1))
 4340 12a6 3F4F      		sbci r19,hi8(-(1))
 4341               	.L447:
 4342               	.LM552:
 4343 12a8 8091 BC00 		lds r24,188
 4344 12ac 87FD      		sbrc r24,7
 4345 12ae 00C0      		rjmp .L448
 4346 12b0 2A35      		cpi r18,90
 4347 12b2 3105      		cpc r19,__zero_reg__
 4348 12b4 01F4      		brne .L449
 4349               	.L448:
 4350               	.LBE989:
 4351               	.LBE988:
 4352               	.LM553:
 4353 12b6 8FEF      		ldi r24,lo8(-1)
 4354 12b8 0E94 0000 		call i2cReceiveByte
 4355               	.LVL297:
 4356 12bc 20E0      		ldi r18,lo8(0)
 4357 12be 30E0      		ldi r19,hi8(0)
 4358               	.LVL298:
 4359 12c0 00C0      		rjmp .L450
 4360               	.L452:
 4361               	.LBB990:
 4362               	.LBB991:
 4363               	.LM554:
 4364 12c2 2F5F      		subi r18,lo8(-(1))
 4365 12c4 3F4F      		sbci r19,hi8(-(1))
 4366               	.L450:
 4367               	.LM555:
 4368 12c6 8091 BC00 		lds r24,188
 4369 12ca 87FD      		sbrc r24,7
 4370 12cc 00C0      		rjmp .L451
 4371 12ce 2A35      		cpi r18,90
 4372 12d0 3105      		cpc r19,__zero_reg__
 4373 12d2 01F4      		brne .L452
 4374               	.L451:
 4375               	.LBE991:
 4376               	.LBE990:
 4377               	.LBB992:
 4378               	.LBB993:
 4379               	.LM556:
 4380 12d4 1091 BB00 		lds r17,187
 4381               	.LVL299:
 4382 12d8 20E0      		ldi r18,lo8(0)
 4383 12da 30E0      		ldi r19,hi8(0)
 4384               	.LVL300:
 4385 12dc 00C0      		rjmp .L453
 4386               	.L455:
 4387               	.LBE993:
 4388               	.LBE992:
 4389               	.LBB994:
 4390               	.LBB995:
 4391               	.LM557:
 4392 12de 2F5F      		subi r18,lo8(-(1))
 4393 12e0 3F4F      		sbci r19,hi8(-(1))
 4394               	.L453:
 4395               	.LM558:
 4396 12e2 8091 BC00 		lds r24,188
 4397 12e6 87FD      		sbrc r24,7
 4398 12e8 00C0      		rjmp .L454
 4399 12ea 2A35      		cpi r18,90
 4400 12ec 3105      		cpc r19,__zero_reg__
 4401 12ee 01F4      		brne .L455
 4402               	.L454:
 4403               	.LBE995:
 4404               	.LBE994:
 4405               	.LM559:
 4406 12f0 80E0      		ldi r24,lo8(0)
 4407 12f2 0E94 0000 		call i2cReceiveByte
 4408               	.LVL301:
 4409 12f6 20E0      		ldi r18,lo8(0)
 4410 12f8 30E0      		ldi r19,hi8(0)
 4411               	.LVL302:
 4412 12fa 00C0      		rjmp .L456
 4413               	.L458:
 4414               	.LBB996:
 4415               	.LBB997:
 4416               	.LM560:
 4417 12fc 2F5F      		subi r18,lo8(-(1))
 4418 12fe 3F4F      		sbci r19,hi8(-(1))
 4419               	.L456:
 4420               	.LM561:
 4421 1300 8091 BC00 		lds r24,188
 4422 1304 87FD      		sbrc r24,7
 4423 1306 00C0      		rjmp .L457
 4424 1308 2A35      		cpi r18,90
 4425 130a 3105      		cpc r19,__zero_reg__
 4426 130c 01F4      		brne .L458
 4427               	.L457:
 4428               	.LBE997:
 4429               	.LBE996:
 4430               	.LBB998:
 4431               	.LBB999:
 4432               	.LM562:
 4433 130e 8091 BB00 		lds r24,187
 4434               	.LVL303:
 4435 1312 20E0      		ldi r18,lo8(0)
 4436 1314 30E0      		ldi r19,hi8(0)
 4437               	.LVL304:
 4438 1316 00C0      		rjmp .L459
 4439               	.LVL305:
 4440               	.L461:
 4441               	.LBE999:
 4442               	.LBE998:
 4443               	.LBB1000:
 4444               	.LBB1001:
 4445               	.LM563:
 4446 1318 2F5F      		subi r18,lo8(-(1))
 4447 131a 3F4F      		sbci r19,hi8(-(1))
 4448               	.LVL306:
 4449               	.L459:
 4450               	.LM564:
 4451 131c 8091 BC00 		lds r24,188
 4452               	.LVL307:
 4453 1320 87FD      		sbrc r24,7
 4454 1322 00C0      		rjmp .L460
 4455 1324 2A35      		cpi r18,90
 4456 1326 3105      		cpc r19,__zero_reg__
 4457 1328 01F4      		brne .L461
 4458               	.L460:
 4459               	.LBE1001:
 4460               	.LBE1000:
 4461               	.LBB1002:
 4462               	.LBB1003:
 4463               	.LM565:
 4464 132a 84E9      		ldi r24,lo8(-108)
 4465 132c 8093 BC00 		sts 188,r24
 4466 1330 912F      		mov r25,r17
 4467               	.LVL308:
 4468 1332 80E0      		ldi r24,lo8(0)
 4469               	.LVL309:
 4470 1334 202F      		mov r18,r16
 4471               	.LVL310:
 4472 1336 30E0      		ldi r19,lo8(0)
 4473 1338 282B      		or r18,r24
 4474 133a 392B      		or r19,r25
 4475               	.LBE1003:
 4476               	.LBE1002:
 4477               	.LM566:
 4478 133c C901      		movw r24,r18
 4479               	.LVL311:
 4480               	/* epilogue start */
 4481 133e 1F91      		pop r17
 4482 1340 0F91      		pop r16
 4483               	.LVL312:
 4484 1342 0895      		ret
 4485               	.LFE34:
 4487               	.global	UART_Init
 4489               	UART_Init:
 4490               	.LFB36:
 4491               	.LM567:
 4492               	.LVL313:
 4493               	/* prologue: function */
 4494               	/* frame size = 0 */
 4495               	.LM568:
 4496 1344 492F      		mov r20,r25
 4497 1346 5527      		clr r21
 4498 1348 47FD      		sbrc r20,7
 4499 134a 5A95      		dec r21
 4500               	.LVL314:
 4501 134c 4093 C500 		sts 197,r20
 4502               	.LM569:
 4503 1350 8093 C400 		sts 196,r24
 4504               	.LM570:
 4505 1354 22E0      		ldi r18,lo8(2)
 4506 1356 2093 C000 		sts 192,r18
 4507               	.LM571:
 4508 135a 28E1      		ldi r18,lo8(24)
 4509 135c 2093 C100 		sts 193,r18
 4510               	.LM572:
 4511 1360 26E0      		ldi r18,lo8(6)
 4512 1362 2093 C200 		sts 194,r18
 4513               	.LM573:
 4514 1366 20E0      		ldi r18,lo8(mystdout)
 4515 1368 30E0      		ldi r19,hi8(mystdout)
 4516 136a 3093 0000 		sts (__iob+2)+1,r19
 4517 136e 2093 0000 		sts __iob+2,r18
 4518               	.LVL315:
 4519               	/* epilogue start */
 4520               	.LM574:
 4521 1372 0895      		ret
 4522               	.LFE36:
 4524               	.global	check_baud
 4526               	check_baud:
 4527               	.LFB18:
 4528               	.LM575:
 4529               	/* prologue: function */
 4530               	/* frame size = 0 */
 4531               	.L466:
 4532               	.LBB1004:
 4533               	.LBB1005:
 4534               	.LM576:
 4535 1374 F999      		sbic 63-32,1
 4536 1376 00C0      		rjmp .L466
 4537               	.LM577:
 4538 1378 82E0      		ldi r24,lo8(2)
 4539 137a 90E0      		ldi r25,hi8(2)
 4540 137c 92BD      		out (65)+1-32,r25
 4541 137e 81BD      		out 65-32,r24
 4542               	.LM578:
 4543 1380 F89A      		sbi 63-32,0
 4544               	.LM579:
 4545 1382 80B5      		in r24,64-32
 4546               	.LBE1005:
 4547               	.LBE1004:
 4548               	.LM580:
 4549 1384 8336      		cpi r24,lo8(99)
 4550 1386 01F0      		breq .+2
 4551 1388 00C0      		rjmp .L467
 4552               	.L479:
 4553               	.LBB1006:
 4554               	.LBB1007:
 4555               	.LM581:
 4556 138a F999      		sbic 63-32,1
 4557 138c 00C0      		rjmp .L479
 4558               	.LM582:
 4559 138e 83E0      		ldi r24,lo8(3)
 4560 1390 90E0      		ldi r25,hi8(3)
 4561 1392 92BD      		out (65)+1-32,r25
 4562 1394 81BD      		out 65-32,r24
 4563               	.LM583:
 4564 1396 F89A      		sbi 63-32,0
 4565               	.LM584:
 4566 1398 80B5      		in r24,64-32
 4567               	.LBE1007:
 4568               	.LBE1006:
 4569               	.LM585:
 4570 139a 8430      		cpi r24,lo8(4)
 4571 139c 01F4      		brne .L478
 4572               	.LM586:
 4573 139e 80EC      		ldi r24,lo8(4800)
 4574 13a0 92E1      		ldi r25,hi8(4800)
 4575 13a2 A0E0      		ldi r26,hlo8(4800)
 4576 13a4 B0E0      		ldi r27,hhi8(4800)
 4577 13a6 8093 0000 		sts baud,r24
 4578 13aa 9093 0000 		sts (baud)+1,r25
 4579 13ae A093 0000 		sts (baud)+2,r26
 4580 13b2 B093 0000 		sts (baud)+3,r27
 4581               	.LM587:
 4582 13b6 8FEC      		ldi r24,lo8(207)
 4583 13b8 90E0      		ldi r25,hi8(207)
 4584 13ba 0E94 0000 		call UART_Init
 4585               	.L478:
 4586               	.LBB1008:
 4587               	.LBB1009:
 4588               	.LM588:
 4589 13be F999      		sbic 63-32,1
 4590 13c0 00C0      		rjmp .L478
 4591               	.LM589:
 4592 13c2 84E0      		ldi r24,lo8(4)
 4593 13c4 90E0      		ldi r25,hi8(4)
 4594 13c6 92BD      		out (65)+1-32,r25
 4595 13c8 81BD      		out 65-32,r24
 4596               	.LM590:
 4597 13ca F89A      		sbi 63-32,0
 4598               	.LM591:
 4599 13cc 80B5      		in r24,64-32
 4600               	.LBE1009:
 4601               	.LBE1008:
 4602               	.LM592:
 4603 13ce 8930      		cpi r24,lo8(9)
 4604 13d0 01F4      		brne .L477
 4605               	.LM593:
 4606 13d2 80E8      		ldi r24,lo8(9600)
 4607 13d4 95E2      		ldi r25,hi8(9600)
 4608 13d6 A0E0      		ldi r26,hlo8(9600)
 4609 13d8 B0E0      		ldi r27,hhi8(9600)
 4610 13da 8093 0000 		sts baud,r24
 4611 13de 9093 0000 		sts (baud)+1,r25
 4612 13e2 A093 0000 		sts (baud)+2,r26
 4613 13e6 B093 0000 		sts (baud)+3,r27
 4614               	.LM594:
 4615 13ea 87E6      		ldi r24,lo8(103)
 4616 13ec 90E0      		ldi r25,hi8(103)
 4617 13ee 0E94 0000 		call UART_Init
 4618               	.L477:
 4619               	.LBB1010:
 4620               	.LBB1011:
 4621               	.LM595:
 4622 13f2 F999      		sbic 63-32,1
 4623 13f4 00C0      		rjmp .L477
 4624               	.LM596:
 4625 13f6 85E0      		ldi r24,lo8(5)
 4626 13f8 90E0      		ldi r25,hi8(5)
 4627 13fa 92BD      		out (65)+1-32,r25
 4628 13fc 81BD      		out 65-32,r24
 4629               	.LM597:
 4630 13fe F89A      		sbi 63-32,0
 4631               	.LM598:
 4632 1400 80B5      		in r24,64-32
 4633               	.LBE1011:
 4634               	.LBE1010:
 4635               	.LM599:
 4636 1402 8331      		cpi r24,lo8(19)
 4637 1404 01F4      		brne .L476
 4638               	.LM600:
 4639 1406 80E0      		ldi r24,lo8(19200)
 4640 1408 9BE4      		ldi r25,hi8(19200)
 4641 140a A0E0      		ldi r26,hlo8(19200)
 4642 140c B0E0      		ldi r27,hhi8(19200)
 4643 140e 8093 0000 		sts baud,r24
 4644 1412 9093 0000 		sts (baud)+1,r25
 4645 1416 A093 0000 		sts (baud)+2,r26
 4646 141a B093 0000 		sts (baud)+3,r27
 4647               	.LM601:
 4648 141e 83E3      		ldi r24,lo8(51)
 4649 1420 90E0      		ldi r25,hi8(51)
 4650 1422 0E94 0000 		call UART_Init
 4651               	.L476:
 4652               	.LBB1012:
 4653               	.LBB1013:
 4654               	.LM602:
 4655 1426 F999      		sbic 63-32,1
 4656 1428 00C0      		rjmp .L476
 4657               	.LM603:
 4658 142a 86E0      		ldi r24,lo8(6)
 4659 142c 90E0      		ldi r25,hi8(6)
 4660 142e 92BD      		out (65)+1-32,r25
 4661 1430 81BD      		out 65-32,r24
 4662               	.LM604:
 4663 1432 F89A      		sbi 63-32,0
 4664               	.LM605:
 4665 1434 80B5      		in r24,64-32
 4666               	.LBE1013:
 4667               	.LBE1012:
 4668               	.LM606:
 4669 1436 8632      		cpi r24,lo8(38)
 4670 1438 01F4      		brne .L475
 4671               	.LM607:
 4672 143a 80E0      		ldi r24,lo8(38400)
 4673 143c 96E9      		ldi r25,hi8(38400)
 4674 143e A0E0      		ldi r26,hlo8(38400)
 4675 1440 B0E0      		ldi r27,hhi8(38400)
 4676 1442 8093 0000 		sts baud,r24
 4677 1446 9093 0000 		sts (baud)+1,r25
 4678 144a A093 0000 		sts (baud)+2,r26
 4679 144e B093 0000 		sts (baud)+3,r27
 4680               	.LM608:
 4681 1452 89E1      		ldi r24,lo8(25)
 4682 1454 90E0      		ldi r25,hi8(25)
 4683 1456 0E94 0000 		call UART_Init
 4684               	.L475:
 4685               	.LBB1014:
 4686               	.LBB1015:
 4687               	.LM609:
 4688 145a F999      		sbic 63-32,1
 4689 145c 00C0      		rjmp .L475
 4690               	.LM610:
 4691 145e 87E0      		ldi r24,lo8(7)
 4692 1460 90E0      		ldi r25,hi8(7)
 4693 1462 92BD      		out (65)+1-32,r25
 4694 1464 81BD      		out 65-32,r24
 4695               	.LM611:
 4696 1466 F89A      		sbi 63-32,0
 4697               	.LM612:
 4698 1468 80B5      		in r24,64-32
 4699               	.LBE1015:
 4700               	.LBE1014:
 4701               	.LM613:
 4702 146a 8933      		cpi r24,lo8(57)
 4703 146c 01F4      		brne .L474
 4704               	.LM614:
 4705 146e 80E0      		ldi r24,lo8(57600)
 4706 1470 91EE      		ldi r25,hi8(57600)
 4707 1472 A0E0      		ldi r26,hlo8(57600)
 4708 1474 B0E0      		ldi r27,hhi8(57600)
 4709 1476 8093 0000 		sts baud,r24
 4710 147a 9093 0000 		sts (baud)+1,r25
 4711 147e A093 0000 		sts (baud)+2,r26
 4712 1482 B093 0000 		sts (baud)+3,r27
 4713               	.LM615:
 4714 1486 80E1      		ldi r24,lo8(16)
 4715 1488 90E0      		ldi r25,hi8(16)
 4716 148a 0E94 0000 		call UART_Init
 4717 148e 0895      		ret
 4718               	.L467:
 4719               	.LM616:
 4720 1490 80E1      		ldi r24,lo8(16)
 4721 1492 90E0      		ldi r25,hi8(16)
 4722 1494 0E94 0000 		call UART_Init
 4723               	.LM617:
 4724 1498 80E0      		ldi r24,lo8(57600)
 4725 149a 91EE      		ldi r25,hi8(57600)
 4726 149c A0E0      		ldi r26,hlo8(57600)
 4727 149e B0E0      		ldi r27,hhi8(57600)
 4728 14a0 8093 0000 		sts baud,r24
 4729 14a4 9093 0000 		sts (baud)+1,r25
 4730 14a8 A093 0000 		sts (baud)+2,r26
 4731 14ac B093 0000 		sts (baud)+3,r27
 4732               	.L474:
 4733 14b0 0895      		ret
 4734               	.LFE18:
 4736               	.global	init
 4738               	init:
 4739               	.LFB35:
 4740               	.LM618:
 4741               	/* prologue: function */
 4742               	/* frame size = 0 */
 4743               	.LM619:
 4744 14b2 80E6      		ldi r24,lo8(96)
 4745 14b4 84B9      		out 36-32,r24
 4746               	.LM620:
 4747 14b6 80E1      		ldi r24,lo8(16)
 4748 14b8 87B9      		out 39-32,r24
 4749               	.LM621:
 4750 14ba 82E0      		ldi r24,lo8(2)
 4751 14bc 8AB9      		out 42-32,r24
 4752               	.LM622:
 4753 14be 80E3      		ldi r24,lo8(48)
 4754 14c0 88B9      		out 40-32,r24
 4755               	.LM623:
 4756 14c2 2D98      		cbi 37-32,5
 4757               	.LM624:
 4758 14c4 0E94 0000 		call i2cInit
 4759               	.LM625:
 4760 14c8 0E94 0000 		call accelerometer_init
 4761               	.LM626:
 4762 14cc 0E94 0000 		call magnetometer_init
 4763               	.LM627:
 4764 14d0 0E94 0000 		call gyro_init
 4765               	.LM628:
 4766 14d4 0E94 0000 		call check_baud
 4767               	/* epilogue start */
 4768               	.LM629:
 4769 14d8 0895      		ret
 4770               	.LFE35:
 4772               	.global	uart_getchar
 4774               	uart_getchar:
 4775               	.LFB37:
 4776               	.LM630:
 4777               	/* prologue: function */
 4778               	/* frame size = 0 */
 4779               	.L489:
 4780               	.LM631:
 4781 14da 8091 C000 		lds r24,192
 4782 14de 87FF      		sbrs r24,7
 4783 14e0 00C0      		rjmp .L489
 4784               	.LM632:
 4785 14e2 8091 C600 		lds r24,198
 4786               	/* epilogue start */
 4787               	.LM633:
 4788 14e6 0895      		ret
 4789               	.LFE37:
 4792               	uart_putchar:
 4793               	.LFB38:
 4794               	.LM634:
 4795               	.LVL316:
 4796 14e8 1F93      		push r17
 4797               	/* prologue: function */
 4798               	/* frame size = 0 */
 4799 14ea 182F      		mov r17,r24
 4800               	.LM635:
 4801 14ec 8A30      		cpi r24,lo8(10)
 4802 14ee 01F4      		brne .L495
 4803 14f0 8DE0      		ldi r24,lo8(13)
 4804               	.LVL317:
 4805 14f2 0E94 0000 		call uart_putchar
 4806               	.LVL318:
 4807               	.L495:
 4808               	.LM636:
 4809 14f6 8091 C000 		lds r24,192
 4810 14fa 85FF      		sbrs r24,5
 4811 14fc 00C0      		rjmp .L495
 4812               	.LM637:
 4813 14fe 1093 C600 		sts 198,r17
 4814               	.LM638:
 4815 1502 80E0      		ldi r24,lo8(0)
 4816 1504 90E0      		ldi r25,hi8(0)
 4817               	/* epilogue start */
 4818 1506 1F91      		pop r17
 4819               	.LVL319:
 4820 1508 0895      		ret
 4821               	.LFE38:
 4823               	.global	write_to_EEPROM
 4825               	write_to_EEPROM:
 4826               	.LFB39:
 4827               	.LM639:
 4828               	/* prologue: function */
 4829               	/* frame size = 0 */
 4830               	.LVL320:
 4831               	.L498:
 4832               	.LM640:
 4833 150a F999      		sbic 63-32,1
 4834 150c 00C0      		rjmp .L498
 4835               	.LM641:
 4836 150e 92BD      		out (65)+1-32,r25
 4837 1510 81BD      		out 65-32,r24
 4838               	.LM642:
 4839 1512 60BD      		out 64-32,r22
 4840               	.LM643:
 4841 1514 FA9A      		sbi 63-32,2
 4842               	.LM644:
 4843 1516 F99A      		sbi 63-32,1
 4844               	/* epilogue start */
 4845               	.LM645:
 4846 1518 0895      		ret
 4847               	.LFE39:
 4849               	.global	read_from_EEPROM
 4851               	read_from_EEPROM:
 4852               	.LFB40:
 4853               	.LM646:
 4854               	/* prologue: function */
 4855               	/* frame size = 0 */
 4856               	.LVL321:
 4857               	.L502:
 4858               	.LM647:
 4859 151a F999      		sbic 63-32,1
 4860 151c 00C0      		rjmp .L502
 4861               	.LM648:
 4862 151e 92BD      		out (65)+1-32,r25
 4863 1520 81BD      		out 65-32,r24
 4864               	.LM649:
 4865 1522 F89A      		sbi 63-32,0
 4866               	.LM650:
 4867 1524 80B5      		in r24,64-32
 4868               	.LVL322:
 4869               	/* epilogue start */
 4870               	.LM651:
 4871 1526 0895      		ret
 4872               	.LFE40:
 4874               		.data
 4875               	.LC0:
 4876 0000 783D 2025 		.string	"x= %4d, "
 4876      3464 2C20 
 4876      00
 4877               	.LC1:
 4878 0009 793D 2025 		.string	"y= %4d, "
 4878      3464 2C20 
 4878      00
 4879               	.LC2:
 4880 0012 7A3D 2025 		.string	"z= %4d\n\r"
 4880      3464 0A0D 
 4880      00
 4881               		.text
 4882               	.global	print_itg3200
 4884               	print_itg3200:
 4885               	.LFB28:
 4886               	.LM652:
 4887               	/* prologue: function */
 4888               	/* frame size = 0 */
 4889               	.LM653:
 4890 1528 0E94 0000 		call x_gyro
 4891 152c 00D0      		rcall .
 4892 152e 00D0      		rcall .
 4893 1530 20E0      		ldi r18,lo8(.LC0)
 4894 1532 30E0      		ldi r19,hi8(.LC0)
 4895 1534 EDB7      		in r30,__SP_L__
 4896 1536 FEB7      		in r31,__SP_H__
 4897 1538 3283      		std Z+2,r19
 4898 153a 2183      		std Z+1,r18
 4899 153c 9483      		std Z+4,r25
 4900 153e 8383      		std Z+3,r24
 4901 1540 0E94 0000 		call printf
 4902               	.LM654:
 4903 1544 0F90      		pop __tmp_reg__
 4904 1546 0F90      		pop __tmp_reg__
 4905 1548 0F90      		pop __tmp_reg__
 4906 154a 0F90      		pop __tmp_reg__
 4907 154c 0E94 0000 		call y_gyro
 4908 1550 00D0      		rcall .
 4909 1552 00D0      		rcall .
 4910 1554 20E0      		ldi r18,lo8(.LC1)
 4911 1556 30E0      		ldi r19,hi8(.LC1)
 4912 1558 EDB7      		in r30,__SP_L__
 4913 155a FEB7      		in r31,__SP_H__
 4914 155c 3283      		std Z+2,r19
 4915 155e 2183      		std Z+1,r18
 4916 1560 9483      		std Z+4,r25
 4917 1562 8383      		std Z+3,r24
 4918 1564 0E94 0000 		call printf
 4919               	.LM655:
 4920 1568 0F90      		pop __tmp_reg__
 4921 156a 0F90      		pop __tmp_reg__
 4922 156c 0F90      		pop __tmp_reg__
 4923 156e 0F90      		pop __tmp_reg__
 4924 1570 0E94 0000 		call z_gyro
 4925 1574 00D0      		rcall .
 4926 1576 00D0      		rcall .
 4927 1578 20E0      		ldi r18,lo8(.LC2)
 4928 157a 30E0      		ldi r19,hi8(.LC2)
 4929 157c EDB7      		in r30,__SP_L__
 4930 157e FEB7      		in r31,__SP_H__
 4931 1580 3283      		std Z+2,r19
 4932 1582 2183      		std Z+1,r18
 4933 1584 9483      		std Z+4,r25
 4934 1586 8383      		std Z+3,r24
 4935 1588 0E94 0000 		call printf
 4936               	.LM656:
 4937 158c 0F90      		pop __tmp_reg__
 4938 158e 0F90      		pop __tmp_reg__
 4939 1590 0F90      		pop __tmp_reg__
 4940 1592 0F90      		pop __tmp_reg__
 4941 1594 84E1      		ldi r24,lo8(20)
 4942 1596 90E0      		ldi r25,hi8(20)
 4943 1598 0E94 0000 		call delay_ms
 4944               	/* epilogue start */
 4945               	.LM657:
 4946 159c 0895      		ret
 4947               	.LFE28:
 4949               		.data
 4950               	.LC3:
 4951 001b 783D 2534 		.string	"x=%4d, "
 4951      642C 2000 
 4952               	.LC4:
 4953 0023 793D 2534 		.string	"y=%4d, "
 4953      642C 2000 
 4954               	.LC5:
 4955 002b 7A3D 2564 		.string	"z=%d\n\r"
 4955      0A0D 00
 4956               		.text
 4957               	.global	print_hmc5883
 4959               	print_hmc5883:
 4960               	.LFB23:
 4961               	.LM658:
 4962               	/* prologue: function */
 4963               	/* frame size = 0 */
 4964               	.LM659:
 4965 159e 0E94 0000 		call magnetometer
 4966               	.LM660:
 4967 15a2 00D0      		rcall .
 4968 15a4 00D0      		rcall .
 4969 15a6 80E0      		ldi r24,lo8(.LC3)
 4970 15a8 90E0      		ldi r25,hi8(.LC3)
 4971 15aa EDB7      		in r30,__SP_L__
 4972 15ac FEB7      		in r31,__SP_H__
 4973 15ae 9283      		std Z+2,r25
 4974 15b0 8183      		std Z+1,r24
 4975 15b2 8091 0000 		lds r24,x_mag
 4976 15b6 9091 0000 		lds r25,(x_mag)+1
 4977 15ba 9483      		std Z+4,r25
 4978 15bc 8383      		std Z+3,r24
 4979 15be 0E94 0000 		call printf
 4980               	.LM661:
 4981 15c2 80E0      		ldi r24,lo8(.LC4)
 4982 15c4 90E0      		ldi r25,hi8(.LC4)
 4983 15c6 EDB7      		in r30,__SP_L__
 4984 15c8 FEB7      		in r31,__SP_H__
 4985 15ca 9283      		std Z+2,r25
 4986 15cc 8183      		std Z+1,r24
 4987 15ce 8091 0000 		lds r24,y_mag
 4988 15d2 9091 0000 		lds r25,(y_mag)+1
 4989 15d6 9483      		std Z+4,r25
 4990 15d8 8383      		std Z+3,r24
 4991 15da 0E94 0000 		call printf
 4992               	.LM662:
 4993 15de 80E0      		ldi r24,lo8(.LC5)
 4994 15e0 90E0      		ldi r25,hi8(.LC5)
 4995 15e2 EDB7      		in r30,__SP_L__
 4996 15e4 FEB7      		in r31,__SP_H__
 4997 15e6 9283      		std Z+2,r25
 4998 15e8 8183      		std Z+1,r24
 4999 15ea 8091 0000 		lds r24,z_mag
 5000 15ee 9091 0000 		lds r25,(z_mag)+1
 5001 15f2 9483      		std Z+4,r25
 5002 15f4 8383      		std Z+3,r24
 5003 15f6 0E94 0000 		call printf
 5004 15fa 0F90      		pop __tmp_reg__
 5005 15fc 0F90      		pop __tmp_reg__
 5006 15fe 0F90      		pop __tmp_reg__
 5007 1600 0F90      		pop __tmp_reg__
 5008               	/* epilogue start */
 5009               	.LM663:
 5010 1602 0895      		ret
 5011               	.LFE23:
 5013               		.data
 5014               	.LC6:
 5015 0032 4845 4C50 		.string	"HELP MENU\n\r"
 5015      204D 454E 
 5015      550A 0D00 
 5016               	.LC7:
 5017 003e 5B31 5D20 		.ascii	"[1] send ascii 1 to get output"
 5017      7365 6E64 
 5017      2061 7363 
 5017      6969 2031 
 5017      2074 6F20 
 5018 005c 2066 726F 		.string	" from the accelerometer(x,y,z). Hit any key to return to menu.\n\r"
 5018      6D20 7468 
 5018      6520 6163 
 5018      6365 6C65 
 5018      726F 6D65 
 5019               	.LC8:
 5020 009d 5B32 5D20 		.ascii	"[2] send ascii 2 to get outpu"
 5020      7365 6E64 
 5020      2061 7363 
 5020      6969 2032 
 5020      2074 6F20 
 5021 00ba 7420 6672 		.string	"t from the magnetometer(x,y,z). Hit any key to return to menu.\n\r"
 5021      6F6D 2074 
 5021      6865 206D 
 5021      6167 6E65 
 5021      746F 6D65 
 5022               	.LC9:
 5023 00fb 5B33 5D20 		.ascii	"[3] send ascii 3 to get ou"
 5023      7365 6E64 
 5023      2061 7363 
 5023      6969 2033 
 5023      2074 6F20 
 5024 0115 7470 7574 		.string	"tput from the gyroscope(x,y,z). Hit any key to return to menu.\n\r"
 5024      2066 726F 
 5024      6D20 7468 
 5024      6520 6779 
 5024      726F 7363 
 5025               	.LC10:
 5026 0156 5B34 5D20 		.ascii	"[4] send ascii 4 to get the raw "
 5026      7365 6E64 
 5026      2061 7363 
 5026      6969 2034 
 5026      2074 6F20 
 5027 0176 6F75 7470 		.string	"output from all of the sensors. Hit any key to return to menu.\n\r"
 5027      7574 2066 
 5027      726F 6D20 
 5027      616C 6C20 
 5027      6F66 2074 
 5028               	.LC11:
 5029 01b7 2A2A 2A20 		.ascii	"*** Raw f"
 5029      5261 7720 
 5029      66
 5030 01c0 6F72 6D61 		.string	"ormat '$accelx,accely,accelz,gyrox,gyroy,gyroz,magx,magy,magz#\n\r"
 5030      7420 2724 
 5030      6163 6365 
 5030      6C78 2C61 
 5030      6363 656C 
 5031               	.LC12:
 5032 0201 5B35 5D20 		.ascii	"[5] send ascii 5 to get the 5 choices for baud rates. Reset "
 5032      7365 6E64 
 5032      2061 7363 
 5032      6969 2035 
 5032      2074 6F20 
 5033 023d 74        		.ascii	"t"
 5034 023e 6572 6D69 		.string	"erminal and board after change. Hit any key to return to menu.\n\r"
 5034      6E61 6C20 
 5034      616E 6420 
 5034      626F 6172 
 5034      6420 6166 
 5035               	.LC13:
 5036 027f 5B63 7472 		.string	"[ctrl-p] ctrl-p tests the accelerometer and magnetometer.\n\r"
 5036      6C2D 705D 
 5036      2063 7472 
 5036      6C2D 7020 
 5036      7465 7374 
 5037               	.LC14:
 5038 02bb 5B63 7472 		.ascii	"[ctrl-z]"
 5038      6C2D 7A5D 
 5039 02c3 2063 7472 		.string	" ctrl+z at anytime will toggle between raw output and the menu\n\r"
 5039      6C2B 7A20 
 5039      6174 2061 
 5039      6E79 7469 
 5039      6D65 2077 
 5040               		.text
 5041               	.global	help
 5043               	help:
 5044               	.LFB22:
 5045               	.LM664:
 5046               	/* prologue: function */
 5047               	/* frame size = 0 */
 5048               	.LM665:
 5049 1604 00D0      		rcall .
 5050 1606 80E0      		ldi r24,lo8(.LC6)
 5051 1608 90E0      		ldi r25,hi8(.LC6)
 5052 160a EDB7      		in r30,__SP_L__
 5053 160c FEB7      		in r31,__SP_H__
 5054 160e 9283      		std Z+2,r25
 5055 1610 8183      		std Z+1,r24
 5056 1612 0E94 0000 		call printf
 5057               	.LM666:
 5058 1616 80E0      		ldi r24,lo8(.LC7)
 5059 1618 90E0      		ldi r25,hi8(.LC7)
 5060 161a EDB7      		in r30,__SP_L__
 5061 161c FEB7      		in r31,__SP_H__
 5062 161e 9283      		std Z+2,r25
 5063 1620 8183      		std Z+1,r24
 5064 1622 0E94 0000 		call printf
 5065               	.LM667:
 5066 1626 80E0      		ldi r24,lo8(.LC8)
 5067 1628 90E0      		ldi r25,hi8(.LC8)
 5068 162a EDB7      		in r30,__SP_L__
 5069 162c FEB7      		in r31,__SP_H__
 5070 162e 9283      		std Z+2,r25
 5071 1630 8183      		std Z+1,r24
 5072 1632 0E94 0000 		call printf
 5073               	.LM668:
 5074 1636 80E0      		ldi r24,lo8(.LC9)
 5075 1638 90E0      		ldi r25,hi8(.LC9)
 5076 163a EDB7      		in r30,__SP_L__
 5077 163c FEB7      		in r31,__SP_H__
 5078 163e 9283      		std Z+2,r25
 5079 1640 8183      		std Z+1,r24
 5080 1642 0E94 0000 		call printf
 5081               	.LM669:
 5082 1646 80E0      		ldi r24,lo8(.LC10)
 5083 1648 90E0      		ldi r25,hi8(.LC10)
 5084 164a EDB7      		in r30,__SP_L__
 5085 164c FEB7      		in r31,__SP_H__
 5086 164e 9283      		std Z+2,r25
 5087 1650 8183      		std Z+1,r24
 5088 1652 0E94 0000 		call printf
 5089               	.LM670:
 5090 1656 80E0      		ldi r24,lo8(.LC11)
 5091 1658 90E0      		ldi r25,hi8(.LC11)
 5092 165a EDB7      		in r30,__SP_L__
 5093 165c FEB7      		in r31,__SP_H__
 5094 165e 9283      		std Z+2,r25
 5095 1660 8183      		std Z+1,r24
 5096 1662 0E94 0000 		call printf
 5097               	.LM671:
 5098 1666 80E0      		ldi r24,lo8(.LC12)
 5099 1668 90E0      		ldi r25,hi8(.LC12)
 5100 166a EDB7      		in r30,__SP_L__
 5101 166c FEB7      		in r31,__SP_H__
 5102 166e 9283      		std Z+2,r25
 5103 1670 8183      		std Z+1,r24
 5104 1672 0E94 0000 		call printf
 5105               	.LM672:
 5106 1676 80E0      		ldi r24,lo8(.LC13)
 5107 1678 90E0      		ldi r25,hi8(.LC13)
 5108 167a EDB7      		in r30,__SP_L__
 5109 167c FEB7      		in r31,__SP_H__
 5110 167e 9283      		std Z+2,r25
 5111 1680 8183      		std Z+1,r24
 5112 1682 0E94 0000 		call printf
 5113               	.LM673:
 5114 1686 80E0      		ldi r24,lo8(.LC14)
 5115 1688 90E0      		ldi r25,hi8(.LC14)
 5116 168a EDB7      		in r30,__SP_L__
 5117 168c FEB7      		in r31,__SP_H__
 5118 168e 9283      		std Z+2,r25
 5119 1690 8183      		std Z+1,r24
 5120 1692 0E94 0000 		call printf
 5121 1696 0F90      		pop __tmp_reg__
 5122 1698 0F90      		pop __tmp_reg__
 5123               	/* epilogue start */
 5124               	.LM674:
 5125 169a 0895      		ret
 5126               	.LFE22:
 5128               		.data
 5129               	.LC15:
 5130 0304 7A3D 2534 		.string	"z=%4d \n\r"
 5130      6420 0A0D 
 5130      00
 5131               		.text
 5132               	.global	print_adxl345
 5134               	print_adxl345:
 5135               	.LFB15:
 5136               	.LM675:
 5137               	/* prologue: function */
 5138               	/* frame size = 0 */
 5139               	.LM676:
 5140 169c 0E94 0000 		call x_accel
 5141 16a0 00D0      		rcall .
 5142 16a2 00D0      		rcall .
 5143 16a4 20E0      		ldi r18,lo8(.LC3)
 5144 16a6 30E0      		ldi r19,hi8(.LC3)
 5145 16a8 EDB7      		in r30,__SP_L__
 5146 16aa FEB7      		in r31,__SP_H__
 5147 16ac 3283      		std Z+2,r19
 5148 16ae 2183      		std Z+1,r18
 5149 16b0 9483      		std Z+4,r25
 5150 16b2 8383      		std Z+3,r24
 5151 16b4 0E94 0000 		call printf
 5152               	.LM677:
 5153 16b8 0F90      		pop __tmp_reg__
 5154 16ba 0F90      		pop __tmp_reg__
 5155 16bc 0F90      		pop __tmp_reg__
 5156 16be 0F90      		pop __tmp_reg__
 5157 16c0 0E94 0000 		call y_accel
 5158 16c4 00D0      		rcall .
 5159 16c6 00D0      		rcall .
 5160 16c8 20E0      		ldi r18,lo8(.LC4)
 5161 16ca 30E0      		ldi r19,hi8(.LC4)
 5162 16cc EDB7      		in r30,__SP_L__
 5163 16ce FEB7      		in r31,__SP_H__
 5164 16d0 3283      		std Z+2,r19
 5165 16d2 2183      		std Z+1,r18
 5166 16d4 9483      		std Z+4,r25
 5167 16d6 8383      		std Z+3,r24
 5168 16d8 0E94 0000 		call printf
 5169               	.LM678:
 5170 16dc 0F90      		pop __tmp_reg__
 5171 16de 0F90      		pop __tmp_reg__
 5172 16e0 0F90      		pop __tmp_reg__
 5173 16e2 0F90      		pop __tmp_reg__
 5174 16e4 0E94 0000 		call z_accel
 5175 16e8 00D0      		rcall .
 5176 16ea 00D0      		rcall .
 5177 16ec 20E0      		ldi r18,lo8(.LC15)
 5178 16ee 30E0      		ldi r19,hi8(.LC15)
 5179 16f0 EDB7      		in r30,__SP_L__
 5180 16f2 FEB7      		in r31,__SP_H__
 5181 16f4 3283      		std Z+2,r19
 5182 16f6 2183      		std Z+1,r18
 5183 16f8 9483      		std Z+4,r25
 5184 16fa 8383      		std Z+3,r24
 5185 16fc 0E94 0000 		call printf
 5186               	.LM679:
 5187 1700 0F90      		pop __tmp_reg__
 5188 1702 0F90      		pop __tmp_reg__
 5189 1704 0F90      		pop __tmp_reg__
 5190 1706 0F90      		pop __tmp_reg__
 5191 1708 84E1      		ldi r24,lo8(20)
 5192 170a 90E0      		ldi r25,hi8(20)
 5193 170c 0E94 0000 		call delay_ms
 5194               	/* epilogue start */
 5195               	.LM680:
 5196 1710 0895      		ret
 5197               	.LFE15:
 5199               		.data
 5200               	.LC16:
 5201 030d 2564 2C00 		.string	"%d,"
 5202               	.LC17:
 5203 0311 2564 00   		.string	"%d"
 5204               	.LC18:
 5205 0314 230A 0D00 		.string	"#\n\r"
 5206               		.text
 5207               	.global	raw
 5209               	raw:
 5210               	.LFB26:
 5211               	.LM681:
 5212 1712 0F93      		push r16
 5213 1714 1F93      		push r17
 5214               	/* prologue: function */
 5215               	/* frame size = 0 */
 5216               	.LM682:
 5217 1716 84E2      		ldi r24,lo8(36)
 5218 1718 90E0      		ldi r25,hi8(36)
 5219 171a 0E94 0000 		call putchar
 5220               	.LM683:
 5221 171e 0E94 0000 		call x_accel
 5222 1722 00D0      		rcall .
 5223 1724 00D0      		rcall .
 5224 1726 00E0      		ldi r16,lo8(.LC16)
 5225 1728 10E0      		ldi r17,hi8(.LC16)
 5226 172a EDB7      		in r30,__SP_L__
 5227 172c FEB7      		in r31,__SP_H__
 5228 172e 1283      		std Z+2,r17
 5229 1730 0183      		std Z+1,r16
 5230 1732 9483      		std Z+4,r25
 5231 1734 8383      		std Z+3,r24
 5232 1736 0E94 0000 		call printf
 5233               	.LM684:
 5234 173a 0F90      		pop __tmp_reg__
 5235 173c 0F90      		pop __tmp_reg__
 5236 173e 0F90      		pop __tmp_reg__
 5237 1740 0F90      		pop __tmp_reg__
 5238 1742 0E94 0000 		call y_accel
 5239 1746 00D0      		rcall .
 5240 1748 00D0      		rcall .
 5241 174a EDB7      		in r30,__SP_L__
 5242 174c FEB7      		in r31,__SP_H__
 5243 174e 1283      		std Z+2,r17
 5244 1750 0183      		std Z+1,r16
 5245 1752 9483      		std Z+4,r25
 5246 1754 8383      		std Z+3,r24
 5247 1756 0E94 0000 		call printf
 5248               	.LM685:
 5249 175a 0F90      		pop __tmp_reg__
 5250 175c 0F90      		pop __tmp_reg__
 5251 175e 0F90      		pop __tmp_reg__
 5252 1760 0F90      		pop __tmp_reg__
 5253 1762 0E94 0000 		call z_accel
 5254 1766 00D0      		rcall .
 5255 1768 00D0      		rcall .
 5256 176a EDB7      		in r30,__SP_L__
 5257 176c FEB7      		in r31,__SP_H__
 5258 176e 1283      		std Z+2,r17
 5259 1770 0183      		std Z+1,r16
 5260 1772 9483      		std Z+4,r25
 5261 1774 8383      		std Z+3,r24
 5262 1776 0E94 0000 		call printf
 5263               	.LM686:
 5264 177a 0F90      		pop __tmp_reg__
 5265 177c 0F90      		pop __tmp_reg__
 5266 177e 0F90      		pop __tmp_reg__
 5267 1780 0F90      		pop __tmp_reg__
 5268 1782 0E94 0000 		call x_gyro
 5269 1786 00D0      		rcall .
 5270 1788 00D0      		rcall .
 5271 178a EDB7      		in r30,__SP_L__
 5272 178c FEB7      		in r31,__SP_H__
 5273 178e 1283      		std Z+2,r17
 5274 1790 0183      		std Z+1,r16
 5275 1792 9483      		std Z+4,r25
 5276 1794 8383      		std Z+3,r24
 5277 1796 0E94 0000 		call printf
 5278               	.LM687:
 5279 179a 0F90      		pop __tmp_reg__
 5280 179c 0F90      		pop __tmp_reg__
 5281 179e 0F90      		pop __tmp_reg__
 5282 17a0 0F90      		pop __tmp_reg__
 5283 17a2 0E94 0000 		call y_gyro
 5284 17a6 00D0      		rcall .
 5285 17a8 00D0      		rcall .
 5286 17aa EDB7      		in r30,__SP_L__
 5287 17ac FEB7      		in r31,__SP_H__
 5288 17ae 1283      		std Z+2,r17
 5289 17b0 0183      		std Z+1,r16
 5290 17b2 9483      		std Z+4,r25
 5291 17b4 8383      		std Z+3,r24
 5292 17b6 0E94 0000 		call printf
 5293               	.LM688:
 5294 17ba 0F90      		pop __tmp_reg__
 5295 17bc 0F90      		pop __tmp_reg__
 5296 17be 0F90      		pop __tmp_reg__
 5297 17c0 0F90      		pop __tmp_reg__
 5298 17c2 0E94 0000 		call z_gyro
 5299 17c6 00D0      		rcall .
 5300 17c8 00D0      		rcall .
 5301 17ca EDB7      		in r30,__SP_L__
 5302 17cc FEB7      		in r31,__SP_H__
 5303 17ce 1283      		std Z+2,r17
 5304 17d0 0183      		std Z+1,r16
 5305 17d2 9483      		std Z+4,r25
 5306 17d4 8383      		std Z+3,r24
 5307 17d6 0E94 0000 		call printf
 5308               	.LM689:
 5309 17da 0F90      		pop __tmp_reg__
 5310 17dc 0F90      		pop __tmp_reg__
 5311 17de 0F90      		pop __tmp_reg__
 5312 17e0 0F90      		pop __tmp_reg__
 5313 17e2 0E94 0000 		call magnetometer
 5314               	.LM690:
 5315 17e6 00D0      		rcall .
 5316 17e8 00D0      		rcall .
 5317 17ea EDB7      		in r30,__SP_L__
 5318 17ec FEB7      		in r31,__SP_H__
 5319 17ee 1283      		std Z+2,r17
 5320 17f0 0183      		std Z+1,r16
 5321 17f2 8091 0000 		lds r24,x_mag
 5322 17f6 9091 0000 		lds r25,(x_mag)+1
 5323 17fa 9483      		std Z+4,r25
 5324 17fc 8383      		std Z+3,r24
 5325 17fe 0E94 0000 		call printf
 5326               	.LM691:
 5327 1802 EDB7      		in r30,__SP_L__
 5328 1804 FEB7      		in r31,__SP_H__
 5329 1806 1283      		std Z+2,r17
 5330 1808 0183      		std Z+1,r16
 5331 180a 8091 0000 		lds r24,y_mag
 5332 180e 9091 0000 		lds r25,(y_mag)+1
 5333 1812 9483      		std Z+4,r25
 5334 1814 8383      		std Z+3,r24
 5335 1816 0E94 0000 		call printf
 5336               	.LM692:
 5337 181a 80E0      		ldi r24,lo8(.LC17)
 5338 181c 90E0      		ldi r25,hi8(.LC17)
 5339 181e EDB7      		in r30,__SP_L__
 5340 1820 FEB7      		in r31,__SP_H__
 5341 1822 9283      		std Z+2,r25
 5342 1824 8183      		std Z+1,r24
 5343 1826 8091 0000 		lds r24,z_mag
 5344 182a 9091 0000 		lds r25,(z_mag)+1
 5345 182e 9483      		std Z+4,r25
 5346 1830 8383      		std Z+3,r24
 5347 1832 0E94 0000 		call printf
 5348               	.LM693:
 5349 1836 0F90      		pop __tmp_reg__
 5350 1838 0F90      		pop __tmp_reg__
 5351 183a 80E0      		ldi r24,lo8(.LC18)
 5352 183c 90E0      		ldi r25,hi8(.LC18)
 5353 183e EDB7      		in r30,__SP_L__
 5354 1840 FEB7      		in r31,__SP_H__
 5355 1842 9283      		std Z+2,r25
 5356 1844 8183      		std Z+1,r24
 5357 1846 0E94 0000 		call printf
 5358               	.LM694:
 5359 184a 0F90      		pop __tmp_reg__
 5360 184c 0F90      		pop __tmp_reg__
 5361 184e 8EE5      		ldi r24,lo8(350)
 5362 1850 91E0      		ldi r25,hi8(350)
 5363 1852 0E94 0000 		call delay_ms
 5364               	/* epilogue start */
 5365               	.LM695:
 5366 1856 1F91      		pop r17
 5367 1858 0F91      		pop r16
 5368 185a 0895      		ret
 5369               	.LFE26:
 5371               		.data
 5372               	.LC19:
 5373 0318 256C 6462 		.string	"%ldbps\n\r"
 5373      7073 0A0D 
 5373      00
 5374               		.text
 5375               	.global	config_menu
 5377               	config_menu:
 5378               	.LFB19:
 5379               	.LM696:
 5380               	/* prologue: function */
 5381               	/* frame size = 0 */
 5382               	.LM697:
 5383 185c 0E94 0000 		call i2cInit
 5384               	.LM698:
 5385 1860 0E94 0000 		call accelerometer_init
 5386               	.LM699:
 5387 1864 0E94 0000 		call magnetometer_init
 5388               	.LM700:
 5389 1868 00D0      		rcall .
 5390 186a 80E0      		ldi r24,lo8(wlcm_str)
 5391 186c 90E0      		ldi r25,hi8(wlcm_str)
 5392 186e EDB7      		in r30,__SP_L__
 5393 1870 FEB7      		in r31,__SP_H__
 5394 1872 9283      		std Z+2,r25
 5395 1874 8183      		std Z+1,r24
 5396 1876 0E94 0000 		call printf_P
 5397               	.LM701:
 5398 187a 80E0      		ldi r24,lo8(accel)
 5399 187c 90E0      		ldi r25,hi8(accel)
 5400 187e EDB7      		in r30,__SP_L__
 5401 1880 FEB7      		in r31,__SP_H__
 5402 1882 9283      		std Z+2,r25
 5403 1884 8183      		std Z+1,r24
 5404 1886 0E94 0000 		call printf_P
 5405               	.LM702:
 5406 188a 80E0      		ldi r24,lo8(mag)
 5407 188c 90E0      		ldi r25,hi8(mag)
 5408 188e EDB7      		in r30,__SP_L__
 5409 1890 FEB7      		in r31,__SP_H__
 5410 1892 9283      		std Z+2,r25
 5411 1894 8183      		std Z+1,r24
 5412 1896 0E94 0000 		call printf_P
 5413               	.LM703:
 5414 189a 80E0      		ldi r24,lo8(gyro)
 5415 189c 90E0      		ldi r25,hi8(gyro)
 5416 189e EDB7      		in r30,__SP_L__
 5417 18a0 FEB7      		in r31,__SP_H__
 5418 18a2 9283      		std Z+2,r25
 5419 18a4 8183      		std Z+1,r24
 5420 18a6 0E94 0000 		call printf_P
 5421               	.LM704:
 5422 18aa 80E0      		ldi r24,lo8(raw_out)
 5423 18ac 90E0      		ldi r25,hi8(raw_out)
 5424 18ae EDB7      		in r30,__SP_L__
 5425 18b0 FEB7      		in r31,__SP_H__
 5426 18b2 9283      		std Z+2,r25
 5427 18b4 8183      		std Z+1,r24
 5428 18b6 0E94 0000 		call printf_P
 5429               	.LM705:
 5430 18ba 80E0      		ldi r24,lo8(baud_change)
 5431 18bc 90E0      		ldi r25,hi8(baud_change)
 5432 18be EDB7      		in r30,__SP_L__
 5433 18c0 FEB7      		in r31,__SP_H__
 5434 18c2 9283      		std Z+2,r25
 5435 18c4 8183      		std Z+1,r24
 5436 18c6 0E94 0000 		call printf_P
 5437               	.LM706:
 5438 18ca 00D0      		rcall .
 5439 18cc 00D0      		rcall .
 5440 18ce 80E0      		ldi r24,lo8(.LC19)
 5441 18d0 90E0      		ldi r25,hi8(.LC19)
 5442 18d2 EDB7      		in r30,__SP_L__
 5443 18d4 FEB7      		in r31,__SP_H__
 5444 18d6 9283      		std Z+2,r25
 5445 18d8 8183      		std Z+1,r24
 5446 18da 8091 0000 		lds r24,baud
 5447 18de 9091 0000 		lds r25,(baud)+1
 5448 18e2 A091 0000 		lds r26,(baud)+2
 5449 18e6 B091 0000 		lds r27,(baud)+3
 5450 18ea 8383      		std Z+3,r24
 5451 18ec 9483      		std Z+4,r25
 5452 18ee A583      		std Z+5,r26
 5453 18f0 B683      		std Z+6,r27
 5454 18f2 0E94 0000 		call printf
 5455               	.LM707:
 5456 18f6 0F90      		pop __tmp_reg__
 5457 18f8 0F90      		pop __tmp_reg__
 5458 18fa 0F90      		pop __tmp_reg__
 5459 18fc 0F90      		pop __tmp_reg__
 5460 18fe 80E0      		ldi r24,lo8(autorun)
 5461 1900 90E0      		ldi r25,hi8(autorun)
 5462 1902 EDB7      		in r30,__SP_L__
 5463 1904 FEB7      		in r31,__SP_H__
 5464 1906 9283      		std Z+2,r25
 5465 1908 8183      		std Z+1,r24
 5466 190a 0E94 0000 		call printf_P
 5467               	.LM708:
 5468 190e 80E0      		ldi r24,lo8(help_)
 5469 1910 90E0      		ldi r25,hi8(help_)
 5470 1912 EDB7      		in r30,__SP_L__
 5471 1914 FEB7      		in r31,__SP_H__
 5472 1916 9283      		std Z+2,r25
 5473 1918 8183      		std Z+1,r24
 5474 191a 0E94 0000 		call printf_P
 5475               	.LM709:
 5476 191e 0F90      		pop __tmp_reg__
 5477 1920 0F90      		pop __tmp_reg__
 5478 1922 0E94 0000 		call config_read
 5479               	/* epilogue start */
 5480               	.LM710:
 5481 1926 0895      		ret
 5482               	.LFE19:
 5484               		.data
 5485               	.LC20:
 5486 0321 4954 473A 		.string	"ITG: GOOD\n\r"
 5486      2047 4F4F 
 5486      440A 0D00 
 5487               	.LC21:
 5488 032d 4954 473A 		.string	"ITG: BAD\n\r"
 5488      2042 4144 
 5488      0A0D 00
 5489               	.LC22:
 5490 0338 484D 433A 		.string	"HMC: GOOD\n\r"
 5490      2047 4F4F 
 5490      440A 0D00 
 5491               	.LC23:
 5492 0344 484D 433A 		.string	"HMC: BAD\n\r"
 5492      2042 4144 
 5492      0A0D 00
 5493               	.LC24:
 5494 034f 4144 584C 		.string	"ADXL: GOOD\n\r"
 5494      3A20 474F 
 5494      4F44 0A0D 
 5494      00
 5495               	.LC25:
 5496 035c 4144 584C 		.string	"ADXL: BAD\n\r"
 5496      3A20 4241 
 5496      440A 0D00 
 5497               		.text
 5498               	.global	self_test
 5500               	self_test:
 5501               	.LFB27:
 5502               	.LM711:
 5503 1928 EF92      		push r14
 5504 192a FF92      		push r15
 5505 192c 0F93      		push r16
 5506 192e 1F93      		push r17
 5507 1930 CF93      		push r28
 5508 1932 DF93      		push r29
 5509               	/* prologue: function */
 5510               	/* frame size = 0 */
 5511               	.LM712:
 5512 1934 1092 0000 		sts (x_mag)+1,__zero_reg__
 5513 1938 1092 0000 		sts x_mag,__zero_reg__
 5514               	.LM713:
 5515 193c 1092 0000 		sts (y_mag)+1,__zero_reg__
 5516 1940 1092 0000 		sts y_mag,__zero_reg__
 5517               	.LM714:
 5518 1944 1092 0000 		sts (z_mag)+1,__zero_reg__
 5519 1948 1092 0000 		sts z_mag,__zero_reg__
 5520               	.LM715:
 5521 194c 0E94 0000 		call magnetometer_init
 5522               	.LBB1016:
 5523               	.LBB1017:
 5524               	.LM716:
 5525 1950 3C9A      		sbi 39-32,4
 5526               	.LM717:
 5527 1952 84EA      		ldi r24,lo8(-92)
 5528 1954 8093 BC00 		sts 188,r24
 5529 1958 20E0      		ldi r18,lo8(0)
 5530 195a 30E0      		ldi r19,hi8(0)
 5531               	.LVL323:
 5532 195c 00C0      		rjmp .L518
 5533               	.L520:
 5534               	.LBE1017:
 5535               	.LBE1016:
 5536               	.LBB1018:
 5537               	.LBB1019:
 5538               	.LM718:
 5539 195e 2F5F      		subi r18,lo8(-(1))
 5540 1960 3F4F      		sbci r19,hi8(-(1))
 5541               	.L518:
 5542               	.LM719:
 5543 1962 8091 BC00 		lds r24,188
 5544 1966 87FD      		sbrc r24,7
 5545 1968 00C0      		rjmp .L519
 5546 196a 2A35      		cpi r18,90
 5547 196c 3105      		cpc r19,__zero_reg__
 5548 196e 01F4      		brne .L520
 5549               	.L519:
 5550               	.LBE1019:
 5551               	.LBE1018:
 5552               	.LM720:
 5553 1970 8DE3      		ldi r24,lo8(61)
 5554 1972 0E94 0000 		call i2cSendByte
 5555               	.LVL324:
 5556 1976 20E0      		ldi r18,lo8(0)
 5557 1978 30E0      		ldi r19,hi8(0)
 5558               	.LVL325:
 5559 197a 00C0      		rjmp .L521
 5560               	.L523:
 5561               	.LBB1020:
 5562               	.LBB1021:
 5563               	.LM721:
 5564 197c 2F5F      		subi r18,lo8(-(1))
 5565 197e 3F4F      		sbci r19,hi8(-(1))
 5566               	.L521:
 5567               	.LM722:
 5568 1980 8091 BC00 		lds r24,188
 5569 1984 87FD      		sbrc r24,7
 5570 1986 00C0      		rjmp .L522
 5571 1988 2A35      		cpi r18,90
 5572 198a 3105      		cpc r19,__zero_reg__
 5573 198c 01F4      		brne .L523
 5574               	.L522:
 5575               	.LBE1021:
 5576               	.LBE1020:
 5577               	.LM723:
 5578 198e 8FEF      		ldi r24,lo8(-1)
 5579 1990 0E94 0000 		call i2cReceiveByte
 5580               	.LVL326:
 5581 1994 20E0      		ldi r18,lo8(0)
 5582 1996 30E0      		ldi r19,hi8(0)
 5583               	.LVL327:
 5584 1998 00C0      		rjmp .L524
 5585               	.L526:
 5586               	.LBB1022:
 5587               	.LBB1023:
 5588               	.LM724:
 5589 199a 2F5F      		subi r18,lo8(-(1))
 5590 199c 3F4F      		sbci r19,hi8(-(1))
 5591               	.L524:
 5592               	.LM725:
 5593 199e 8091 BC00 		lds r24,188
 5594 19a2 87FD      		sbrc r24,7
 5595 19a4 00C0      		rjmp .L525
 5596 19a6 2A35      		cpi r18,90
 5597 19a8 3105      		cpc r19,__zero_reg__
 5598 19aa 01F4      		brne .L526
 5599               	.L525:
 5600               	.LBE1023:
 5601               	.LBE1022:
 5602               	.LBB1024:
 5603               	.LBB1025:
 5604               	.LM726:
 5605 19ac 1091 BB00 		lds r17,187
 5606               	.LVL328:
 5607 19b0 20E0      		ldi r18,lo8(0)
 5608 19b2 30E0      		ldi r19,hi8(0)
 5609               	.LVL329:
 5610 19b4 00C0      		rjmp .L527
 5611               	.L529:
 5612               	.LBE1025:
 5613               	.LBE1024:
 5614               	.LBB1026:
 5615               	.LBB1027:
 5616               	.LM727:
 5617 19b6 2F5F      		subi r18,lo8(-(1))
 5618 19b8 3F4F      		sbci r19,hi8(-(1))
 5619               	.L527:
 5620               	.LM728:
 5621 19ba 8091 BC00 		lds r24,188
 5622 19be 87FD      		sbrc r24,7
 5623 19c0 00C0      		rjmp .L528
 5624 19c2 2A35      		cpi r18,90
 5625 19c4 3105      		cpc r19,__zero_reg__
 5626 19c6 01F4      		brne .L529
 5627               	.L528:
 5628               	.LBE1027:
 5629               	.LBE1026:
 5630               	.LM729:
 5631 19c8 8FEF      		ldi r24,lo8(-1)
 5632 19ca 0E94 0000 		call i2cReceiveByte
 5633               	.LVL330:
 5634 19ce 20E0      		ldi r18,lo8(0)
 5635 19d0 30E0      		ldi r19,hi8(0)
 5636               	.LVL331:
 5637 19d2 00C0      		rjmp .L530
 5638               	.L532:
 5639               	.LBB1028:
 5640               	.LBB1029:
 5641               	.LM730:
 5642 19d4 2F5F      		subi r18,lo8(-(1))
 5643 19d6 3F4F      		sbci r19,hi8(-(1))
 5644               	.L530:
 5645               	.LM731:
 5646 19d8 8091 BC00 		lds r24,188
 5647 19dc 87FD      		sbrc r24,7
 5648 19de 00C0      		rjmp .L531
 5649 19e0 2A35      		cpi r18,90
 5650 19e2 3105      		cpc r19,__zero_reg__
 5651 19e4 01F4      		brne .L532
 5652               	.L531:
 5653               	.LBE1029:
 5654               	.LBE1028:
 5655               	.LBB1030:
 5656               	.LBB1031:
 5657               	.LM732:
 5658 19e6 2091 BB00 		lds r18,187
 5659               	.LVL332:
 5660 19ea 40E0      		ldi r20,lo8(0)
 5661 19ec 50E0      		ldi r21,hi8(0)
 5662               	.LVL333:
 5663 19ee 00C0      		rjmp .L533
 5664               	.L535:
 5665               	.LBE1031:
 5666               	.LBE1030:
 5667               	.LBB1032:
 5668               	.LBB1033:
 5669               	.LM733:
 5670 19f0 4F5F      		subi r20,lo8(-(1))
 5671 19f2 5F4F      		sbci r21,hi8(-(1))
 5672               	.L533:
 5673               	.LM734:
 5674 19f4 8091 BC00 		lds r24,188
 5675 19f8 87FD      		sbrc r24,7
 5676 19fa 00C0      		rjmp .L534
 5677 19fc 4A35      		cpi r20,90
 5678 19fe 5105      		cpc r21,__zero_reg__
 5679 1a00 01F4      		brne .L535
 5680               	.L534:
 5681               	.LBE1033:
 5682               	.LBE1032:
 5683               	.LM735:
 5684 1a02 912F      		mov r25,r17
 5685               	.LVL334:
 5686 1a04 80E0      		ldi r24,lo8(0)
 5687               	.LVL335:
 5688 1a06 30E0      		ldi r19,lo8(0)
 5689               	.LVL336:
 5690 1a08 822B      		or r24,r18
 5691 1a0a 932B      		or r25,r19
 5692               	.LVL337:
 5693 1a0c 9093 0000 		sts (x_mag)+1,r25
 5694 1a10 8093 0000 		sts x_mag,r24
 5695               	.LM736:
 5696 1a14 8FEF      		ldi r24,lo8(-1)
 5697               	.LVL338:
 5698 1a16 0E94 0000 		call i2cReceiveByte
 5699               	.LVL339:
 5700 1a1a 20E0      		ldi r18,lo8(0)
 5701 1a1c 30E0      		ldi r19,hi8(0)
 5702               	.LVL340:
 5703 1a1e 00C0      		rjmp .L536
 5704               	.L538:
 5705               	.LBB1034:
 5706               	.LBB1035:
 5707               	.LM737:
 5708 1a20 2F5F      		subi r18,lo8(-(1))
 5709 1a22 3F4F      		sbci r19,hi8(-(1))
 5710               	.L536:
 5711               	.LM738:
 5712 1a24 8091 BC00 		lds r24,188
 5713 1a28 87FD      		sbrc r24,7
 5714 1a2a 00C0      		rjmp .L537
 5715 1a2c 2A35      		cpi r18,90
 5716 1a2e 3105      		cpc r19,__zero_reg__
 5717 1a30 01F4      		brne .L538
 5718               	.L537:
 5719               	.LBE1035:
 5720               	.LBE1034:
 5721               	.LBB1036:
 5722               	.LBB1037:
 5723               	.LM739:
 5724 1a32 1091 BB00 		lds r17,187
 5725               	.LVL341:
 5726 1a36 20E0      		ldi r18,lo8(0)
 5727 1a38 30E0      		ldi r19,hi8(0)
 5728               	.LVL342:
 5729 1a3a 00C0      		rjmp .L539
 5730               	.L541:
 5731               	.LBE1037:
 5732               	.LBE1036:
 5733               	.LBB1038:
 5734               	.LBB1039:
 5735               	.LM740:
 5736 1a3c 2F5F      		subi r18,lo8(-(1))
 5737 1a3e 3F4F      		sbci r19,hi8(-(1))
 5738               	.L539:
 5739               	.LM741:
 5740 1a40 8091 BC00 		lds r24,188
 5741 1a44 87FD      		sbrc r24,7
 5742 1a46 00C0      		rjmp .L540
 5743 1a48 2A35      		cpi r18,90
 5744 1a4a 3105      		cpc r19,__zero_reg__
 5745 1a4c 01F4      		brne .L541
 5746               	.L540:
 5747               	.LBE1039:
 5748               	.LBE1038:
 5749               	.LM742:
 5750 1a4e 8FEF      		ldi r24,lo8(-1)
 5751 1a50 0E94 0000 		call i2cReceiveByte
 5752               	.LVL343:
 5753 1a54 20E0      		ldi r18,lo8(0)
 5754 1a56 30E0      		ldi r19,hi8(0)
 5755               	.LVL344:
 5756 1a58 00C0      		rjmp .L542
 5757               	.L544:
 5758               	.LBB1040:
 5759               	.LBB1041:
 5760               	.LM743:
 5761 1a5a 2F5F      		subi r18,lo8(-(1))
 5762 1a5c 3F4F      		sbci r19,hi8(-(1))
 5763               	.L542:
 5764               	.LM744:
 5765 1a5e 8091 BC00 		lds r24,188
 5766 1a62 87FD      		sbrc r24,7
 5767 1a64 00C0      		rjmp .L543
 5768 1a66 2A35      		cpi r18,90
 5769 1a68 3105      		cpc r19,__zero_reg__
 5770 1a6a 01F4      		brne .L544
 5771               	.L543:
 5772               	.LBE1041:
 5773               	.LBE1040:
 5774               	.LBB1042:
 5775               	.LBB1043:
 5776               	.LM745:
 5777 1a6c 2091 BB00 		lds r18,187
 5778               	.LVL345:
 5779 1a70 40E0      		ldi r20,lo8(0)
 5780 1a72 50E0      		ldi r21,hi8(0)
 5781               	.LVL346:
 5782 1a74 00C0      		rjmp .L545
 5783               	.L547:
 5784               	.LBE1043:
 5785               	.LBE1042:
 5786               	.LBB1044:
 5787               	.LBB1045:
 5788               	.LM746:
 5789 1a76 4F5F      		subi r20,lo8(-(1))
 5790 1a78 5F4F      		sbci r21,hi8(-(1))
 5791               	.L545:
 5792               	.LM747:
 5793 1a7a 8091 BC00 		lds r24,188
 5794 1a7e 87FD      		sbrc r24,7
 5795 1a80 00C0      		rjmp .L546
 5796 1a82 4A35      		cpi r20,90
 5797 1a84 5105      		cpc r21,__zero_reg__
 5798 1a86 01F4      		brne .L547
 5799               	.L546:
 5800               	.LBE1045:
 5801               	.LBE1044:
 5802               	.LM748:
 5803 1a88 912F      		mov r25,r17
 5804               	.LVL347:
 5805 1a8a 80E0      		ldi r24,lo8(0)
 5806               	.LVL348:
 5807 1a8c 30E0      		ldi r19,lo8(0)
 5808               	.LVL349:
 5809 1a8e 822B      		or r24,r18
 5810 1a90 932B      		or r25,r19
 5811               	.LVL350:
 5812 1a92 9093 0000 		sts (z_mag)+1,r25
 5813 1a96 8093 0000 		sts z_mag,r24
 5814               	.LM749:
 5815 1a9a 8FEF      		ldi r24,lo8(-1)
 5816               	.LVL351:
 5817 1a9c 0E94 0000 		call i2cReceiveByte
 5818               	.LVL352:
 5819 1aa0 20E0      		ldi r18,lo8(0)
 5820 1aa2 30E0      		ldi r19,hi8(0)
 5821               	.LVL353:
 5822 1aa4 00C0      		rjmp .L548
 5823               	.L550:
 5824               	.LBB1046:
 5825               	.LBB1047:
 5826               	.LM750:
 5827 1aa6 2F5F      		subi r18,lo8(-(1))
 5828 1aa8 3F4F      		sbci r19,hi8(-(1))
 5829               	.L548:
 5830               	.LM751:
 5831 1aaa 8091 BC00 		lds r24,188
 5832 1aae 87FD      		sbrc r24,7
 5833 1ab0 00C0      		rjmp .L549
 5834 1ab2 2A35      		cpi r18,90
 5835 1ab4 3105      		cpc r19,__zero_reg__
 5836 1ab6 01F4      		brne .L550
 5837               	.L549:
 5838               	.LBE1047:
 5839               	.LBE1046:
 5840               	.LBB1048:
 5841               	.LBB1049:
 5842               	.LM752:
 5843 1ab8 1091 BB00 		lds r17,187
 5844               	.LVL354:
 5845 1abc 20E0      		ldi r18,lo8(0)
 5846 1abe 30E0      		ldi r19,hi8(0)
 5847               	.LVL355:
 5848 1ac0 00C0      		rjmp .L551
 5849               	.L553:
 5850               	.LBE1049:
 5851               	.LBE1048:
 5852               	.LBB1050:
 5853               	.LBB1051:
 5854               	.LM753:
 5855 1ac2 2F5F      		subi r18,lo8(-(1))
 5856 1ac4 3F4F      		sbci r19,hi8(-(1))
 5857               	.L551:
 5858               	.LM754:
 5859 1ac6 8091 BC00 		lds r24,188
 5860 1aca 87FD      		sbrc r24,7
 5861 1acc 00C0      		rjmp .L552
 5862 1ace 2A35      		cpi r18,90
 5863 1ad0 3105      		cpc r19,__zero_reg__
 5864 1ad2 01F4      		brne .L553
 5865               	.L552:
 5866               	.LBE1051:
 5867               	.LBE1050:
 5868               	.LM755:
 5869 1ad4 8FEF      		ldi r24,lo8(-1)
 5870 1ad6 0E94 0000 		call i2cReceiveByte
 5871               	.LVL356:
 5872 1ada 20E0      		ldi r18,lo8(0)
 5873 1adc 30E0      		ldi r19,hi8(0)
 5874               	.LVL357:
 5875 1ade 00C0      		rjmp .L554
 5876               	.L556:
 5877               	.LBB1052:
 5878               	.LBB1053:
 5879               	.LM756:
 5880 1ae0 2F5F      		subi r18,lo8(-(1))
 5881 1ae2 3F4F      		sbci r19,hi8(-(1))
 5882               	.L554:
 5883               	.LM757:
 5884 1ae4 8091 BC00 		lds r24,188
 5885 1ae8 87FD      		sbrc r24,7
 5886 1aea 00C0      		rjmp .L555
 5887 1aec 2A35      		cpi r18,90
 5888 1aee 3105      		cpc r19,__zero_reg__
 5889 1af0 01F4      		brne .L556
 5890               	.L555:
 5891               	.LBE1053:
 5892               	.LBE1052:
 5893               	.LBB1054:
 5894               	.LBB1055:
 5895               	.LM758:
 5896 1af2 2091 BB00 		lds r18,187
 5897               	.LVL358:
 5898 1af6 40E0      		ldi r20,lo8(0)
 5899 1af8 50E0      		ldi r21,hi8(0)
 5900               	.LVL359:
 5901 1afa 00C0      		rjmp .L557
 5902               	.L559:
 5903               	.LBE1055:
 5904               	.LBE1054:
 5905               	.LBB1056:
 5906               	.LBB1057:
 5907               	.LM759:
 5908 1afc 4F5F      		subi r20,lo8(-(1))
 5909 1afe 5F4F      		sbci r21,hi8(-(1))
 5910               	.L557:
 5911               	.LM760:
 5912 1b00 8091 BC00 		lds r24,188
 5913 1b04 87FD      		sbrc r24,7
 5914 1b06 00C0      		rjmp .L558
 5915 1b08 4A35      		cpi r20,90
 5916 1b0a 5105      		cpc r21,__zero_reg__
 5917 1b0c 01F4      		brne .L559
 5918               	.L558:
 5919               	.LBE1057:
 5920               	.LBE1056:
 5921               	.LM761:
 5922 1b0e 912F      		mov r25,r17
 5923               	.LVL360:
 5924 1b10 80E0      		ldi r24,lo8(0)
 5925               	.LVL361:
 5926 1b12 30E0      		ldi r19,lo8(0)
 5927               	.LVL362:
 5928 1b14 822B      		or r24,r18
 5929 1b16 932B      		or r25,r19
 5930               	.LVL363:
 5931 1b18 9093 0000 		sts (y_mag)+1,r25
 5932 1b1c 8093 0000 		sts y_mag,r24
 5933               	.LM762:
 5934 1b20 8DE3      		ldi r24,lo8(61)
 5935               	.LVL364:
 5936 1b22 0E94 0000 		call i2cSendByte
 5937               	.LVL365:
 5938 1b26 20E0      		ldi r18,lo8(0)
 5939 1b28 30E0      		ldi r19,hi8(0)
 5940               	.LVL366:
 5941 1b2a 00C0      		rjmp .L560
 5942               	.L562:
 5943               	.LBB1058:
 5944               	.LBB1059:
 5945               	.LM763:
 5946 1b2c 2F5F      		subi r18,lo8(-(1))
 5947 1b2e 3F4F      		sbci r19,hi8(-(1))
 5948               	.L560:
 5949               	.LM764:
 5950 1b30 8091 BC00 		lds r24,188
 5951 1b34 87FD      		sbrc r24,7
 5952 1b36 00C0      		rjmp .L561
 5953 1b38 2A35      		cpi r18,90
 5954 1b3a 3105      		cpc r19,__zero_reg__
 5955 1b3c 01F4      		brne .L562
 5956               	.L561:
 5957               	.LBE1059:
 5958               	.LBE1058:
 5959               	.LBB1060:
 5960               	.LBB1061:
 5961               	.LM765:
 5962 1b3e 84E9      		ldi r24,lo8(-108)
 5963 1b40 8093 BC00 		sts 188,r24
 5964               	.LBE1061:
 5965               	.LBE1060:
 5966               	.LM766:
 5967 1b44 2091 0000 		lds r18,x_mag
 5968 1b48 3091 0000 		lds r19,(x_mag)+1
 5969               	.LVL367:
 5970 1b4c 8091 0000 		lds r24,y_mag
 5971 1b50 9091 0000 		lds r25,(y_mag)+1
 5972 1b54 2817      		cp r18,r24
 5973 1b56 3907      		cpc r19,r25
 5974 1b58 01F4      		brne .L563
 5975 1b5a 8091 0000 		lds r24,z_mag
 5976 1b5e 9091 0000 		lds r25,(z_mag)+1
 5977 1b62 2817      		cp r18,r24
 5978 1b64 3907      		cpc r19,r25
 5979 1b66 01F4      		brne .L563
 5980 1b68 FF24      		clr r15
 5981 1b6a FA94      		dec r15
 5982               	.LVL368:
 5983 1b6c 00C0      		rjmp .L564
 5984               	.LVL369:
 5985               	.L563:
 5986 1b6e FF24      		clr r15
 5987               	.LVL370:
 5988               	.L564:
 5989               	.LBB1062:
 5990               	.LBB1063:
 5991               	.LM767:
 5992 1b70 3C9A      		sbi 39-32,4
 5993               	.LM768:
 5994 1b72 84EA      		ldi r24,lo8(-92)
 5995 1b74 8093 BC00 		sts 188,r24
 5996 1b78 20E0      		ldi r18,lo8(0)
 5997 1b7a 30E0      		ldi r19,hi8(0)
 5998               	.LVL371:
 5999 1b7c 00C0      		rjmp .L565
 6000               	.L567:
 6001               	.LBE1063:
 6002               	.LBE1062:
 6003               	.LBB1064:
 6004               	.LBB1065:
 6005               	.LM769:
 6006 1b7e 2F5F      		subi r18,lo8(-(1))
 6007 1b80 3F4F      		sbci r19,hi8(-(1))
 6008               	.L565:
 6009               	.LM770:
 6010 1b82 8091 BC00 		lds r24,188
 6011 1b86 87FD      		sbrc r24,7
 6012 1b88 00C0      		rjmp .L566
 6013 1b8a 2A35      		cpi r18,90
 6014 1b8c 3105      		cpc r19,__zero_reg__
 6015 1b8e 01F4      		brne .L567
 6016               	.L566:
 6017               	.LBE1065:
 6018               	.LBE1064:
 6019               	.LM771:
 6020 1b90 86EA      		ldi r24,lo8(-90)
 6021 1b92 0E94 0000 		call i2cSendByte
 6022               	.LVL372:
 6023 1b96 20E0      		ldi r18,lo8(0)
 6024 1b98 30E0      		ldi r19,hi8(0)
 6025               	.LVL373:
 6026 1b9a 00C0      		rjmp .L568
 6027               	.L570:
 6028               	.LBB1066:
 6029               	.LBB1067:
 6030               	.LM772:
 6031 1b9c 2F5F      		subi r18,lo8(-(1))
 6032 1b9e 3F4F      		sbci r19,hi8(-(1))
 6033               	.L568:
 6034               	.LM773:
 6035 1ba0 8091 BC00 		lds r24,188
 6036 1ba4 87FD      		sbrc r24,7
 6037 1ba6 00C0      		rjmp .L569
 6038 1ba8 2A35      		cpi r18,90
 6039 1baa 3105      		cpc r19,__zero_reg__
 6040 1bac 01F4      		brne .L570
 6041               	.L569:
 6042               	.LBE1067:
 6043               	.LBE1066:
 6044               	.LM774:
 6045 1bae 80E0      		ldi r24,lo8(0)
 6046 1bb0 0E94 0000 		call i2cSendByte
 6047               	.LVL374:
 6048 1bb4 20E0      		ldi r18,lo8(0)
 6049 1bb6 30E0      		ldi r19,hi8(0)
 6050               	.LVL375:
 6051 1bb8 00C0      		rjmp .L571
 6052               	.L573:
 6053               	.LBB1068:
 6054               	.LBB1069:
 6055               	.LM775:
 6056 1bba 2F5F      		subi r18,lo8(-(1))
 6057 1bbc 3F4F      		sbci r19,hi8(-(1))
 6058               	.L571:
 6059               	.LM776:
 6060 1bbe 8091 BC00 		lds r24,188
 6061 1bc2 87FD      		sbrc r24,7
 6062 1bc4 00C0      		rjmp .L572
 6063 1bc6 2A35      		cpi r18,90
 6064 1bc8 3105      		cpc r19,__zero_reg__
 6065 1bca 01F4      		brne .L573
 6066               	.L572:
 6067               	.LBE1069:
 6068               	.LBE1068:
 6069               	.LBB1070:
 6070               	.LBB1071:
 6071               	.LM777:
 6072 1bcc 84E9      		ldi r24,lo8(-108)
 6073 1bce 8093 BC00 		sts 188,r24
 6074               	.LBE1071:
 6075               	.LBE1070:
 6076               	.LBB1072:
 6077               	.LBB1073:
 6078               	.LM778:
 6079 1bd2 3C9A      		sbi 39-32,4
 6080               	.LM779:
 6081 1bd4 84EA      		ldi r24,lo8(-92)
 6082 1bd6 8093 BC00 		sts 188,r24
 6083 1bda 20E0      		ldi r18,lo8(0)
 6084 1bdc 30E0      		ldi r19,hi8(0)
 6085               	.LVL376:
 6086 1bde 00C0      		rjmp .L574
 6087               	.L576:
 6088               	.LBE1073:
 6089               	.LBE1072:
 6090               	.LBB1074:
 6091               	.LBB1075:
 6092               	.LM780:
 6093 1be0 2F5F      		subi r18,lo8(-(1))
 6094 1be2 3F4F      		sbci r19,hi8(-(1))
 6095               	.L574:
 6096               	.LM781:
 6097 1be4 8091 BC00 		lds r24,188
 6098 1be8 87FD      		sbrc r24,7
 6099 1bea 00C0      		rjmp .L575
 6100 1bec 2A35      		cpi r18,90
 6101 1bee 3105      		cpc r19,__zero_reg__
 6102 1bf0 01F4      		brne .L576
 6103               	.L575:
 6104               	.LBE1075:
 6105               	.LBE1074:
 6106               	.LM782:
 6107 1bf2 87EA      		ldi r24,lo8(-89)
 6108 1bf4 0E94 0000 		call i2cSendByte
 6109               	.LVL377:
 6110 1bf8 20E0      		ldi r18,lo8(0)
 6111 1bfa 30E0      		ldi r19,hi8(0)
 6112               	.LVL378:
 6113 1bfc 00C0      		rjmp .L577
 6114               	.L579:
 6115               	.LBB1076:
 6116               	.LBB1077:
 6117               	.LM783:
 6118 1bfe 2F5F      		subi r18,lo8(-(1))
 6119 1c00 3F4F      		sbci r19,hi8(-(1))
 6120               	.L577:
 6121               	.LM784:
 6122 1c02 8091 BC00 		lds r24,188
 6123 1c06 87FD      		sbrc r24,7
 6124 1c08 00C0      		rjmp .L578
 6125 1c0a 2A35      		cpi r18,90
 6126 1c0c 3105      		cpc r19,__zero_reg__
 6127 1c0e 01F4      		brne .L579
 6128               	.L578:
 6129               	.LBE1077:
 6130               	.LBE1076:
 6131               	.LM785:
 6132 1c10 8FEF      		ldi r24,lo8(-1)
 6133 1c12 0E94 0000 		call i2cReceiveByte
 6134               	.LVL379:
 6135 1c16 20E0      		ldi r18,lo8(0)
 6136 1c18 30E0      		ldi r19,hi8(0)
 6137               	.LVL380:
 6138 1c1a 00C0      		rjmp .L580
 6139               	.L582:
 6140               	.LBB1078:
 6141               	.LBB1079:
 6142               	.LM786:
 6143 1c1c 2F5F      		subi r18,lo8(-(1))
 6144 1c1e 3F4F      		sbci r19,hi8(-(1))
 6145               	.L580:
 6146               	.LM787:
 6147 1c20 8091 BC00 		lds r24,188
 6148 1c24 87FD      		sbrc r24,7
 6149 1c26 00C0      		rjmp .L581
 6150 1c28 2A35      		cpi r18,90
 6151 1c2a 3105      		cpc r19,__zero_reg__
 6152 1c2c 01F4      		brne .L582
 6153               	.L581:
 6154               	.LBE1079:
 6155               	.LBE1078:
 6156               	.LBB1080:
 6157               	.LBB1081:
 6158               	.LM788:
 6159 1c2e E090 BB00 		lds r14,187
 6160               	.LVL381:
 6161 1c32 20E0      		ldi r18,lo8(0)
 6162 1c34 30E0      		ldi r19,hi8(0)
 6163               	.LVL382:
 6164 1c36 00C0      		rjmp .L583
 6165               	.L585:
 6166               	.LBE1081:
 6167               	.LBE1080:
 6168               	.LBB1082:
 6169               	.LBB1083:
 6170               	.LM789:
 6171 1c38 2F5F      		subi r18,lo8(-(1))
 6172 1c3a 3F4F      		sbci r19,hi8(-(1))
 6173               	.L583:
 6174               	.LM790:
 6175 1c3c 8091 BC00 		lds r24,188
 6176 1c40 87FD      		sbrc r24,7
 6177 1c42 00C0      		rjmp .L584
 6178 1c44 2A35      		cpi r18,90
 6179 1c46 3105      		cpc r19,__zero_reg__
 6180 1c48 01F4      		brne .L585
 6181               	.L584:
 6182               	.LBE1083:
 6183               	.LBE1082:
 6184               	.LM791:
 6185 1c4a 80E0      		ldi r24,lo8(0)
 6186 1c4c 0E94 0000 		call i2cReceiveByte
 6187               	.LVL383:
 6188 1c50 20E0      		ldi r18,lo8(0)
 6189 1c52 30E0      		ldi r19,hi8(0)
 6190               	.LVL384:
 6191 1c54 00C0      		rjmp .L586
 6192               	.L588:
 6193               	.LBB1084:
 6194               	.LBB1085:
 6195               	.LM792:
 6196 1c56 2F5F      		subi r18,lo8(-(1))
 6197 1c58 3F4F      		sbci r19,hi8(-(1))
 6198               	.L586:
 6199               	.LM793:
 6200 1c5a 8091 BC00 		lds r24,188
 6201 1c5e 87FD      		sbrc r24,7
 6202 1c60 00C0      		rjmp .L587
 6203 1c62 2A35      		cpi r18,90
 6204 1c64 3105      		cpc r19,__zero_reg__
 6205 1c66 01F4      		brne .L588
 6206               	.L587:
 6207               	.LBE1085:
 6208               	.LBE1084:
 6209               	.LBB1086:
 6210               	.LBB1087:
 6211               	.LM794:
 6212 1c68 8091 BB00 		lds r24,187
 6213               	.LVL385:
 6214 1c6c 20E0      		ldi r18,lo8(0)
 6215 1c6e 30E0      		ldi r19,hi8(0)
 6216               	.LVL386:
 6217 1c70 00C0      		rjmp .L589
 6218               	.LVL387:
 6219               	.L591:
 6220               	.LBE1087:
 6221               	.LBE1086:
 6222               	.LBB1088:
 6223               	.LBB1089:
 6224               	.LM795:
 6225 1c72 2F5F      		subi r18,lo8(-(1))
 6226 1c74 3F4F      		sbci r19,hi8(-(1))
 6227               	.LVL388:
 6228               	.L589:
 6229               	.LM796:
 6230 1c76 8091 BC00 		lds r24,188
 6231               	.LVL389:
 6232 1c7a 87FD      		sbrc r24,7
 6233 1c7c 00C0      		rjmp .L590
 6234 1c7e 2A35      		cpi r18,90
 6235 1c80 3105      		cpc r19,__zero_reg__
 6236 1c82 01F4      		brne .L591
 6237               	.L590:
 6238               	.LBE1089:
 6239               	.LBE1088:
 6240               	.LBB1090:
 6241               	.LBB1091:
 6242               	.LM797:
 6243 1c84 84E9      		ldi r24,lo8(-108)
 6244 1c86 8093 BC00 		sts 188,r24
 6245               	.LBE1091:
 6246               	.LBE1090:
 6247               	.LM798:
 6248 1c8a 8091 BC00 		lds r24,188
 6249 1c8e 8B7F      		andi r24,lo8(-5)
 6250 1c90 8093 BC00 		sts 188,r24
 6251               	.LM799:
 6252 1c94 8091 BC00 		lds r24,188
 6253 1c98 8460      		ori r24,lo8(4)
 6254 1c9a 8093 BC00 		sts 188,r24
 6255               	.LBB1092:
 6256               	.LBB1093:
 6257               	.LM800:
 6258 1c9e 3C9A      		sbi 39-32,4
 6259               	.LM801:
 6260 1ca0 84EA      		ldi r24,lo8(-92)
 6261 1ca2 8093 BC00 		sts 188,r24
 6262 1ca6 20E0      		ldi r18,lo8(0)
 6263 1ca8 30E0      		ldi r19,hi8(0)
 6264               	.LVL390:
 6265 1caa 00C0      		rjmp .L592
 6266               	.L594:
 6267               	.LBE1093:
 6268               	.LBE1092:
 6269               	.LBB1094:
 6270               	.LBB1095:
 6271               	.LM802:
 6272 1cac 2F5F      		subi r18,lo8(-(1))
 6273 1cae 3F4F      		sbci r19,hi8(-(1))
 6274               	.L592:
 6275               	.LM803:
 6276 1cb0 8091 BC00 		lds r24,188
 6277 1cb4 87FD      		sbrc r24,7
 6278 1cb6 00C0      		rjmp .L593
 6279 1cb8 2A35      		cpi r18,90
 6280 1cba 3105      		cpc r19,__zero_reg__
 6281 1cbc 01F4      		brne .L594
 6282               	.L593:
 6283               	.LBE1095:
 6284               	.LBE1094:
 6285               	.LM804:
 6286 1cbe 80ED      		ldi r24,lo8(-48)
 6287 1cc0 0E94 0000 		call i2cSendByte
 6288               	.LVL391:
 6289 1cc4 20E0      		ldi r18,lo8(0)
 6290 1cc6 30E0      		ldi r19,hi8(0)
 6291               	.LVL392:
 6292 1cc8 00C0      		rjmp .L595
 6293               	.L597:
 6294               	.LBB1096:
 6295               	.LBB1097:
 6296               	.LM805:
 6297 1cca 2F5F      		subi r18,lo8(-(1))
 6298 1ccc 3F4F      		sbci r19,hi8(-(1))
 6299               	.L595:
 6300               	.LM806:
 6301 1cce 8091 BC00 		lds r24,188
 6302 1cd2 87FD      		sbrc r24,7
 6303 1cd4 00C0      		rjmp .L596
 6304 1cd6 2A35      		cpi r18,90
 6305 1cd8 3105      		cpc r19,__zero_reg__
 6306 1cda 01F4      		brne .L597
 6307               	.L596:
 6308               	.LBE1097:
 6309               	.LBE1096:
 6310               	.LM807:
 6311 1cdc 80E0      		ldi r24,lo8(0)
 6312 1cde 0E94 0000 		call i2cSendByte
 6313               	.LVL393:
 6314 1ce2 20E0      		ldi r18,lo8(0)
 6315 1ce4 30E0      		ldi r19,hi8(0)
 6316               	.LVL394:
 6317 1ce6 00C0      		rjmp .L598
 6318               	.L600:
 6319               	.LBB1098:
 6320               	.LBB1099:
 6321               	.LM808:
 6322 1ce8 2F5F      		subi r18,lo8(-(1))
 6323 1cea 3F4F      		sbci r19,hi8(-(1))
 6324               	.L598:
 6325               	.LM809:
 6326 1cec 8091 BC00 		lds r24,188
 6327 1cf0 87FD      		sbrc r24,7
 6328 1cf2 00C0      		rjmp .L599
 6329 1cf4 2A35      		cpi r18,90
 6330 1cf6 3105      		cpc r19,__zero_reg__
 6331 1cf8 01F4      		brne .L600
 6332               	.L599:
 6333               	.LBE1099:
 6334               	.LBE1098:
 6335               	.LBB1100:
 6336               	.LBB1101:
 6337               	.LM810:
 6338 1cfa 3C9A      		sbi 39-32,4
 6339               	.LM811:
 6340 1cfc 84EA      		ldi r24,lo8(-92)
 6341 1cfe 8093 BC00 		sts 188,r24
 6342               	.LBE1101:
 6343               	.LBE1100:
 6344               	.LM812:
 6345 1d02 81ED      		ldi r24,lo8(-47)
 6346 1d04 0E94 0000 		call i2cSendByte
 6347               	.LVL395:
 6348 1d08 20E0      		ldi r18,lo8(0)
 6349 1d0a 30E0      		ldi r19,hi8(0)
 6350               	.LVL396:
 6351 1d0c 00C0      		rjmp .L601
 6352               	.L603:
 6353               	.LBB1102:
 6354               	.LBB1103:
 6355               	.LM813:
 6356 1d0e 2F5F      		subi r18,lo8(-(1))
 6357 1d10 3F4F      		sbci r19,hi8(-(1))
 6358               	.L601:
 6359               	.LM814:
 6360 1d12 8091 BC00 		lds r24,188
 6361 1d16 87FD      		sbrc r24,7
 6362 1d18 00C0      		rjmp .L602
 6363 1d1a 2A35      		cpi r18,90
 6364 1d1c 3105      		cpc r19,__zero_reg__
 6365 1d1e 01F4      		brne .L603
 6366               	.L602:
 6367               	.LBE1103:
 6368               	.LBE1102:
 6369               	.LM815:
 6370 1d20 80E0      		ldi r24,lo8(0)
 6371 1d22 0E94 0000 		call i2cReceiveByte
 6372               	.LVL397:
 6373 1d26 20E0      		ldi r18,lo8(0)
 6374 1d28 30E0      		ldi r19,hi8(0)
 6375               	.LVL398:
 6376 1d2a 00C0      		rjmp .L604
 6377               	.L606:
 6378               	.LBB1104:
 6379               	.LBB1105:
 6380               	.LM816:
 6381 1d2c 2F5F      		subi r18,lo8(-(1))
 6382 1d2e 3F4F      		sbci r19,hi8(-(1))
 6383               	.L604:
 6384               	.LM817:
 6385 1d30 8091 BC00 		lds r24,188
 6386 1d34 87FD      		sbrc r24,7
 6387 1d36 00C0      		rjmp .L605
 6388 1d38 2A35      		cpi r18,90
 6389 1d3a 3105      		cpc r19,__zero_reg__
 6390 1d3c 01F4      		brne .L606
 6391               	.L605:
 6392               	.LBE1105:
 6393               	.LBE1104:
 6394               	.LBB1106:
 6395               	.LBB1107:
 6396               	.LM818:
 6397 1d3e 9091 BB00 		lds r25,187
 6398               	.LVL399:
 6399 1d42 20E0      		ldi r18,lo8(0)
 6400 1d44 30E0      		ldi r19,hi8(0)
 6401               	.LVL400:
 6402 1d46 00C0      		rjmp .L607
 6403               	.L609:
 6404               	.LBE1107:
 6405               	.LBE1106:
 6406               	.LBB1108:
 6407               	.LBB1109:
 6408               	.LM819:
 6409 1d48 2F5F      		subi r18,lo8(-(1))
 6410 1d4a 3F4F      		sbci r19,hi8(-(1))
 6411               	.L607:
 6412               	.LM820:
 6413 1d4c 8091 BC00 		lds r24,188
 6414 1d50 87FD      		sbrc r24,7
 6415 1d52 00C0      		rjmp .L608
 6416 1d54 2A35      		cpi r18,90
 6417 1d56 3105      		cpc r19,__zero_reg__
 6418 1d58 01F4      		brne .L609
 6419               	.L608:
 6420               	.LBE1109:
 6421               	.LBE1108:
 6422               	.LBB1110:
 6423               	.LBB1111:
 6424               	.LM821:
 6425 1d5a 84E9      		ldi r24,lo8(-108)
 6426 1d5c 8093 BC00 		sts 188,r24
 6427               	.LBE1111:
 6428               	.LBE1110:
 6429               	.LM822:
 6430 1d60 8091 BC00 		lds r24,188
 6431 1d64 8B7F      		andi r24,lo8(-5)
 6432 1d66 8093 BC00 		sts 188,r24
 6433               	.LM823:
 6434 1d6a 8091 BC00 		lds r24,188
 6435 1d6e 8460      		ori r24,lo8(4)
 6436 1d70 8093 BC00 		sts 188,r24
 6437               	.LM824:
 6438 1d74 9856      		subi r25,lo8(-(-104))
 6439 1d76 9230      		cpi r25,lo8(2)
 6440 1d78 00F4      		brsh .L610
 6441               	.LM825:
 6442 1d7a 00D0      		rcall .
 6443 1d7c 80E0      		ldi r24,lo8(.LC20)
 6444 1d7e 90E0      		ldi r25,hi8(.LC20)
 6445 1d80 EDB7      		in r30,__SP_L__
 6446 1d82 FEB7      		in r31,__SP_H__
 6447 1d84 9283      		std Z+2,r25
 6448 1d86 8183      		std Z+1,r24
 6449 1d88 0E94 0000 		call printf
 6450               	.LVL401:
 6451 1d8c 01E0      		ldi r16,lo8(1)
 6452 1d8e 10E0      		ldi r17,hi8(1)
 6453               	.LVL402:
 6454 1d90 00C0      		rjmp .L619
 6455               	.LVL403:
 6456               	.L610:
 6457               	.LM826:
 6458 1d92 00D0      		rcall .
 6459 1d94 80E0      		ldi r24,lo8(.LC21)
 6460 1d96 90E0      		ldi r25,hi8(.LC21)
 6461 1d98 EDB7      		in r30,__SP_L__
 6462 1d9a FEB7      		in r31,__SP_H__
 6463 1d9c 9283      		std Z+2,r25
 6464 1d9e 8183      		std Z+1,r24
 6465 1da0 0E94 0000 		call printf
 6466               	.LVL404:
 6467 1da4 00E0      		ldi r16,lo8(0)
 6468 1da6 10E0      		ldi r17,hi8(0)
 6469               	.LVL405:
 6470               	.L619:
 6471 1da8 0F90      		pop __tmp_reg__
 6472 1daa 0F90      		pop __tmp_reg__
 6473               	.LM827:
 6474 1dac FF20      		tst r15
 6475 1dae 01F4      		brne .L612
 6476               	.LM828:
 6477 1db0 00D0      		rcall .
 6478 1db2 80E0      		ldi r24,lo8(.LC22)
 6479 1db4 90E0      		ldi r25,hi8(.LC22)
 6480 1db6 EDB7      		in r30,__SP_L__
 6481 1db8 FEB7      		in r31,__SP_H__
 6482 1dba 9283      		std Z+2,r25
 6483 1dbc 8183      		std Z+1,r24
 6484 1dbe 0E94 0000 		call printf
 6485 1dc2 C1E0      		ldi r28,lo8(1)
 6486 1dc4 D0E0      		ldi r29,hi8(1)
 6487               	.LVL406:
 6488 1dc6 00C0      		rjmp .L620
 6489               	.LVL407:
 6490               	.L612:
 6491               	.LM829:
 6492 1dc8 00D0      		rcall .
 6493 1dca 80E0      		ldi r24,lo8(.LC23)
 6494 1dcc 90E0      		ldi r25,hi8(.LC23)
 6495 1dce EDB7      		in r30,__SP_L__
 6496 1dd0 FEB7      		in r31,__SP_H__
 6497 1dd2 9283      		std Z+2,r25
 6498 1dd4 8183      		std Z+1,r24
 6499 1dd6 0E94 0000 		call printf
 6500 1dda C0E0      		ldi r28,lo8(0)
 6501 1ddc D0E0      		ldi r29,hi8(0)
 6502               	.LVL408:
 6503               	.L620:
 6504 1dde 0F90      		pop __tmp_reg__
 6505 1de0 0F90      		pop __tmp_reg__
 6506               	.LM830:
 6507 1de2 F5EE      		ldi r31,lo8(-27)
 6508 1de4 EF16      		cp r14,r31
 6509 1de6 01F4      		brne .L614
 6510               	.LM831:
 6511 1de8 00D0      		rcall .
 6512 1dea 80E0      		ldi r24,lo8(.LC24)
 6513 1dec 90E0      		ldi r25,hi8(.LC24)
 6514 1dee EDB7      		in r30,__SP_L__
 6515 1df0 FEB7      		in r31,__SP_H__
 6516 1df2 9283      		std Z+2,r25
 6517 1df4 8183      		std Z+1,r24
 6518 1df6 0E94 0000 		call printf
 6519 1dfa 81E0      		ldi r24,lo8(1)
 6520 1dfc 90E0      		ldi r25,hi8(1)
 6521               	.LVL409:
 6522 1dfe 00C0      		rjmp .L621
 6523               	.LVL410:
 6524               	.L614:
 6525               	.LM832:
 6526 1e00 00D0      		rcall .
 6527 1e02 80E0      		ldi r24,lo8(.LC25)
 6528 1e04 90E0      		ldi r25,hi8(.LC25)
 6529 1e06 EDB7      		in r30,__SP_L__
 6530 1e08 FEB7      		in r31,__SP_H__
 6531 1e0a 9283      		std Z+2,r25
 6532 1e0c 8183      		std Z+1,r24
 6533 1e0e 0E94 0000 		call printf
 6534 1e12 80E0      		ldi r24,lo8(0)
 6535 1e14 90E0      		ldi r25,hi8(0)
 6536               	.LVL411:
 6537               	.L621:
 6538 1e16 0F90      		pop __tmp_reg__
 6539 1e18 0F90      		pop __tmp_reg__
 6540               	.LM833:
 6541 1e1a 0130      		cpi r16,1
 6542 1e1c 1105      		cpc r17,__zero_reg__
 6543 1e1e 01F4      		brne .L616
 6544 1e20 2197      		sbiw r28,1
 6545 1e22 01F4      		brne .L616
 6546 1e24 0197      		sbiw r24,1
 6547 1e26 01F4      		brne .L616
 6548               	.LM834:
 6549 1e28 2D9A      		sbi 37-32,5
 6550               	.LM835:
 6551 1e2a 88EE      		ldi r24,lo8(1000)
 6552 1e2c 93E0      		ldi r25,hi8(1000)
 6553               	.LVL412:
 6554 1e2e 0E94 0000 		call delay_ms
 6555               	.LM836:
 6556 1e32 2D98      		cbi 37-32,5
 6557               	.LM837:
 6558 1e34 88EE      		ldi r24,lo8(1000)
 6559 1e36 93E0      		ldi r25,hi8(1000)
 6560 1e38 0E94 0000 		call delay_ms
 6561               	.LM838:
 6562 1e3c 2D9A      		sbi 37-32,5
 6563               	.LM839:
 6564 1e3e 88EE      		ldi r24,lo8(1000)
 6565 1e40 93E0      		ldi r25,hi8(1000)
 6566 1e42 0E94 0000 		call delay_ms
 6567               	.LM840:
 6568 1e46 2D98      		cbi 37-32,5
 6569               	.LM841:
 6570 1e48 88EE      		ldi r24,lo8(1000)
 6571 1e4a 93E0      		ldi r25,hi8(1000)
 6572 1e4c 0E94 0000 		call delay_ms
 6573               	.LM842:
 6574 1e50 2D9A      		sbi 37-32,5
 6575               	.LM843:
 6576 1e52 88EE      		ldi r24,lo8(1000)
 6577 1e54 93E0      		ldi r25,hi8(1000)
 6578 1e56 0E94 0000 		call delay_ms
 6579               	.LM844:
 6580 1e5a 2D98      		cbi 37-32,5
 6581               	.LM845:
 6582 1e5c 88EE      		ldi r24,lo8(1000)
 6583 1e5e 93E0      		ldi r25,hi8(1000)
 6584 1e60 0E94 0000 		call delay_ms
 6585               	.LM846:
 6586 1e64 2D9A      		sbi 37-32,5
 6587               	.LM847:
 6588 1e66 88EE      		ldi r24,lo8(1000)
 6589 1e68 93E0      		ldi r25,hi8(1000)
 6590 1e6a 0E94 0000 		call delay_ms
 6591               	.LM848:
 6592 1e6e 2D98      		cbi 37-32,5
 6593               	.LM849:
 6594 1e70 88EE      		ldi r24,lo8(1000)
 6595 1e72 93E0      		ldi r25,hi8(1000)
 6596 1e74 0E94 0000 		call delay_ms
 6597               	.LM850:
 6598 1e78 2D9A      		sbi 37-32,5
 6599               	.LM851:
 6600 1e7a 88EE      		ldi r24,lo8(1000)
 6601 1e7c 93E0      		ldi r25,hi8(1000)
 6602 1e7e 0E94 0000 		call delay_ms
 6603               	.LM852:
 6604 1e82 2D98      		cbi 37-32,5
 6605 1e84 00C0      		rjmp .L617
 6606               	.LVL413:
 6607               	.L616:
 6608               	.LM853:
 6609 1e86 2D9A      		sbi 37-32,5
 6610               	.L617:
 6611               	.LM854:
 6612 1e88 0E94 0000 		call config_menu
 6613               	.LVL414:
 6614               	/* epilogue start */
 6615               	.LM855:
 6616 1e8c DF91      		pop r29
 6617 1e8e CF91      		pop r28
 6618               	.LVL415:
 6619 1e90 1F91      		pop r17
 6620 1e92 0F91      		pop r16
 6621               	.LVL416:
 6622 1e94 FF90      		pop r15
 6623               	.LVL417:
 6624 1e96 EF90      		pop r14
 6625               	.LVL418:
 6626 1e98 0895      		ret
 6627               	.LFE27:
 6629               		.data
 6630               	.LC26:
 6631 0368 0A0D 4261 		.string	"\n\rBaud Rate Select Menu\n\r"
 6631      7564 2052 
 6631      6174 6520 
 6631      5365 6C65 
 6631      6374 204D 
 6632               	.LC27:
 6633 0382 5B31 5D20 		.string	"[1] 4800\n\r"
 6633      3438 3030 
 6633      0A0D 00
 6634               	.LC28:
 6635 038d 5B32 5D20 		.string	"[2] 9600\n\r"
 6635      3936 3030 
 6635      0A0D 00
 6636               	.LC29:
 6637 0398 5B33 5D20 		.string	"[3] 19200\n\r"
 6637      3139 3230 
 6637      300A 0D00 
 6638               	.LC30:
 6639 03a4 5B34 5D20 		.string	"[4] 38400\n\r"
 6639      3338 3430 
 6639      300A 0D00 
 6640               	.LC31:
 6641 03b0 5B35 5D20 		.string	"[5] 57600\n\r"
 6641      3537 3630 
 6641      300A 0D00 
 6642               	.LC32:
 6643 03bc 2163 6861 		.string	"!change baud rate to 4800bps, reset board!"
 6643      6E67 6520 
 6643      6261 7564 
 6643      2072 6174 
 6643      6520 746F 
 6644               	.LC33:
 6645 03e7 2163 6861 		.string	"!change baud rate to 9600bps, reset board!"
 6645      6E67 6520 
 6645      6261 7564 
 6645      2072 6174 
 6645      6520 746F 
 6646               	.LC34:
 6647 0412 2163 6861 		.string	"!change baud rate to 19200bps, reset board!"
 6647      6E67 6520 
 6647      6261 7564 
 6647      2072 6174 
 6647      6520 746F 
 6648               	.LC35:
 6649 043e 2163 6861 		.string	"!change baud rate to 38400bps, reset board!"
 6649      6E67 6520 
 6649      6261 7564 
 6649      2072 6174 
 6649      6520 746F 
 6650               	.LC36:
 6651 046a 2163 6861 		.string	"!change baud rate to 57600bps, reset board!"
 6651      6E67 6520 
 6651      6261 7564 
 6651      2072 6174 
 6651      6520 746F 
 6652               		.text
 6653               	.global	baud_menu
 6655               	baud_menu:
 6656               	.LFB17:
 6657               	.LM856:
 6658 1e9a 1F93      		push r17
 6659               	/* prologue: function */
 6660               	/* frame size = 0 */
 6661               	.LM857:
 6662 1e9c 00D0      		rcall .
 6663 1e9e 80E0      		ldi r24,lo8(.LC26)
 6664 1ea0 90E0      		ldi r25,hi8(.LC26)
 6665 1ea2 EDB7      		in r30,__SP_L__
 6666 1ea4 FEB7      		in r31,__SP_H__
 6667 1ea6 9283      		std Z+2,r25
 6668 1ea8 8183      		std Z+1,r24
 6669 1eaa 0E94 0000 		call printf
 6670               	.LM858:
 6671 1eae 80E0      		ldi r24,lo8(.LC27)
 6672 1eb0 90E0      		ldi r25,hi8(.LC27)
 6673 1eb2 EDB7      		in r30,__SP_L__
 6674 1eb4 FEB7      		in r31,__SP_H__
 6675 1eb6 9283      		std Z+2,r25
 6676 1eb8 8183      		std Z+1,r24
 6677 1eba 0E94 0000 		call printf
 6678               	.LM859:
 6679 1ebe 80E0      		ldi r24,lo8(.LC28)
 6680 1ec0 90E0      		ldi r25,hi8(.LC28)
 6681 1ec2 EDB7      		in r30,__SP_L__
 6682 1ec4 FEB7      		in r31,__SP_H__
 6683 1ec6 9283      		std Z+2,r25
 6684 1ec8 8183      		std Z+1,r24
 6685 1eca 0E94 0000 		call printf
 6686               	.LM860:
 6687 1ece 80E0      		ldi r24,lo8(.LC29)
 6688 1ed0 90E0      		ldi r25,hi8(.LC29)
 6689 1ed2 EDB7      		in r30,__SP_L__
 6690 1ed4 FEB7      		in r31,__SP_H__
 6691 1ed6 9283      		std Z+2,r25
 6692 1ed8 8183      		std Z+1,r24
 6693 1eda 0E94 0000 		call printf
 6694               	.LM861:
 6695 1ede 80E0      		ldi r24,lo8(.LC30)
 6696 1ee0 90E0      		ldi r25,hi8(.LC30)
 6697 1ee2 EDB7      		in r30,__SP_L__
 6698 1ee4 FEB7      		in r31,__SP_H__
 6699 1ee6 9283      		std Z+2,r25
 6700 1ee8 8183      		std Z+1,r24
 6701 1eea 0E94 0000 		call printf
 6702               	.LM862:
 6703 1eee 80E0      		ldi r24,lo8(.LC31)
 6704 1ef0 90E0      		ldi r25,hi8(.LC31)
 6705 1ef2 EDB7      		in r30,__SP_L__
 6706 1ef4 FEB7      		in r31,__SP_H__
 6707 1ef6 9283      		std Z+2,r25
 6708 1ef8 8183      		std Z+1,r24
 6709 1efa 0E94 0000 		call printf
 6710 1efe 0F90      		pop __tmp_reg__
 6711 1f00 0F90      		pop __tmp_reg__
 6712               	.LVL419:
 6713               	.L637:
 6714               	.LBB1112:
 6715               	.LBB1113:
 6716               	.LM863:
 6717 1f02 8091 C000 		lds r24,192
 6718 1f06 87FF      		sbrs r24,7
 6719 1f08 00C0      		rjmp .L637
 6720               	.LM864:
 6721 1f0a 1091 C600 		lds r17,198
 6722               	.LBE1113:
 6723               	.LBE1112:
 6724               	.LM865:
 6725 1f0e 6091 0000 		lds r22,__iob+2
 6726 1f12 7091 0000 		lds r23,(__iob+2)+1
 6727 1f16 8AE0      		ldi r24,lo8(10)
 6728 1f18 90E0      		ldi r25,hi8(10)
 6729 1f1a 0E94 0000 		call fputc
 6730               	.LM866:
 6731 1f1e 6091 0000 		lds r22,__iob+2
 6732 1f22 7091 0000 		lds r23,(__iob+2)+1
 6733 1f26 8DE0      		ldi r24,lo8(13)
 6734 1f28 90E0      		ldi r25,hi8(13)
 6735 1f2a 0E94 0000 		call fputc
 6736               	.LM867:
 6737 1f2e 1133      		cpi r17,lo8(49)
 6738 1f30 01F4      		brne .L624
 6739               	.LM868:
 6740 1f32 82E0      		ldi r24,lo8(2)
 6741 1f34 90E0      		ldi r25,hi8(2)
 6742 1f36 63E6      		ldi r22,lo8(99)
 6743 1f38 0E94 0000 		call write_to_EEPROM
 6744               	.LM869:
 6745 1f3c 84E0      		ldi r24,lo8(4)
 6746 1f3e 90E0      		ldi r25,hi8(4)
 6747 1f40 60E0      		ldi r22,lo8(0)
 6748 1f42 0E94 0000 		call write_to_EEPROM
 6749               	.LM870:
 6750 1f46 85E0      		ldi r24,lo8(5)
 6751 1f48 90E0      		ldi r25,hi8(5)
 6752 1f4a 60E0      		ldi r22,lo8(0)
 6753 1f4c 0E94 0000 		call write_to_EEPROM
 6754               	.LM871:
 6755 1f50 86E0      		ldi r24,lo8(6)
 6756 1f52 90E0      		ldi r25,hi8(6)
 6757 1f54 60E0      		ldi r22,lo8(0)
 6758 1f56 0E94 0000 		call write_to_EEPROM
 6759               	.LM872:
 6760 1f5a 87E0      		ldi r24,lo8(7)
 6761 1f5c 90E0      		ldi r25,hi8(7)
 6762 1f5e 60E0      		ldi r22,lo8(0)
 6763 1f60 0E94 0000 		call write_to_EEPROM
 6764               	.LM873:
 6765 1f64 83E0      		ldi r24,lo8(3)
 6766 1f66 90E0      		ldi r25,hi8(3)
 6767 1f68 64E0      		ldi r22,lo8(4)
 6768 1f6a 0E94 0000 		call write_to_EEPROM
 6769               	.LM874:
 6770 1f6e 00D0      		rcall .
 6771 1f70 80E0      		ldi r24,lo8(.LC32)
 6772 1f72 90E0      		ldi r25,hi8(.LC32)
 6773 1f74 EDB7      		in r30,__SP_L__
 6774 1f76 FEB7      		in r31,__SP_H__
 6775 1f78 9283      		std Z+2,r25
 6776 1f7a 8183      		std Z+1,r24
 6777 1f7c 0E94 0000 		call printf
 6778               	.LM875:
 6779 1f80 0F90      		pop __tmp_reg__
 6780 1f82 0F90      		pop __tmp_reg__
 6781 1f84 82E3      		ldi r24,lo8(50)
 6782 1f86 90E0      		ldi r25,hi8(50)
 6783 1f88 0E94 0000 		call delay_ms
 6784               	.LM876:
 6785 1f8c 8FEC      		ldi r24,lo8(207)
 6786 1f8e 90E0      		ldi r25,hi8(207)
 6787 1f90 0E94 0000 		call UART_Init
 6788               	.L625:
 6789 1f94 00C0      		rjmp .L625
 6790               	.L624:
 6791               	.LM877:
 6792 1f96 1233      		cpi r17,lo8(50)
 6793 1f98 01F4      		brne .L626
 6794               	.LM878:
 6795 1f9a 82E0      		ldi r24,lo8(2)
 6796 1f9c 90E0      		ldi r25,hi8(2)
 6797 1f9e 63E6      		ldi r22,lo8(99)
 6798 1fa0 0E94 0000 		call write_to_EEPROM
 6799               	.LM879:
 6800 1fa4 83E0      		ldi r24,lo8(3)
 6801 1fa6 90E0      		ldi r25,hi8(3)
 6802 1fa8 60E0      		ldi r22,lo8(0)
 6803 1faa 0E94 0000 		call write_to_EEPROM
 6804               	.LM880:
 6805 1fae 85E0      		ldi r24,lo8(5)
 6806 1fb0 90E0      		ldi r25,hi8(5)
 6807 1fb2 60E0      		ldi r22,lo8(0)
 6808 1fb4 0E94 0000 		call write_to_EEPROM
 6809               	.LM881:
 6810 1fb8 86E0      		ldi r24,lo8(6)
 6811 1fba 90E0      		ldi r25,hi8(6)
 6812 1fbc 60E0      		ldi r22,lo8(0)
 6813 1fbe 0E94 0000 		call write_to_EEPROM
 6814               	.LM882:
 6815 1fc2 87E0      		ldi r24,lo8(7)
 6816 1fc4 90E0      		ldi r25,hi8(7)
 6817 1fc6 60E0      		ldi r22,lo8(0)
 6818 1fc8 0E94 0000 		call write_to_EEPROM
 6819               	.LM883:
 6820 1fcc 84E0      		ldi r24,lo8(4)
 6821 1fce 90E0      		ldi r25,hi8(4)
 6822 1fd0 69E0      		ldi r22,lo8(9)
 6823 1fd2 0E94 0000 		call write_to_EEPROM
 6824               	.LM884:
 6825 1fd6 00D0      		rcall .
 6826 1fd8 80E0      		ldi r24,lo8(.LC33)
 6827 1fda 90E0      		ldi r25,hi8(.LC33)
 6828 1fdc EDB7      		in r30,__SP_L__
 6829 1fde FEB7      		in r31,__SP_H__
 6830 1fe0 9283      		std Z+2,r25
 6831 1fe2 8183      		std Z+1,r24
 6832 1fe4 0E94 0000 		call printf
 6833               	.LM885:
 6834 1fe8 0F90      		pop __tmp_reg__
 6835 1fea 0F90      		pop __tmp_reg__
 6836 1fec 82E3      		ldi r24,lo8(50)
 6837 1fee 90E0      		ldi r25,hi8(50)
 6838 1ff0 0E94 0000 		call delay_ms
 6839               	.LM886:
 6840 1ff4 87E6      		ldi r24,lo8(103)
 6841 1ff6 90E0      		ldi r25,hi8(103)
 6842 1ff8 0E94 0000 		call UART_Init
 6843               	.L627:
 6844 1ffc 00C0      		rjmp .L627
 6845               	.L626:
 6846               	.LM887:
 6847 1ffe 1333      		cpi r17,lo8(51)
 6848 2000 01F4      		brne .L628
 6849               	.LM888:
 6850 2002 82E0      		ldi r24,lo8(2)
 6851 2004 90E0      		ldi r25,hi8(2)
 6852 2006 63E6      		ldi r22,lo8(99)
 6853 2008 0E94 0000 		call write_to_EEPROM
 6854               	.LM889:
 6855 200c 83E0      		ldi r24,lo8(3)
 6856 200e 90E0      		ldi r25,hi8(3)
 6857 2010 60E0      		ldi r22,lo8(0)
 6858 2012 0E94 0000 		call write_to_EEPROM
 6859               	.LM890:
 6860 2016 84E0      		ldi r24,lo8(4)
 6861 2018 90E0      		ldi r25,hi8(4)
 6862 201a 60E0      		ldi r22,lo8(0)
 6863 201c 0E94 0000 		call write_to_EEPROM
 6864               	.LM891:
 6865 2020 86E0      		ldi r24,lo8(6)
 6866 2022 90E0      		ldi r25,hi8(6)
 6867 2024 60E0      		ldi r22,lo8(0)
 6868 2026 0E94 0000 		call write_to_EEPROM
 6869               	.LM892:
 6870 202a 87E0      		ldi r24,lo8(7)
 6871 202c 90E0      		ldi r25,hi8(7)
 6872 202e 60E0      		ldi r22,lo8(0)
 6873 2030 0E94 0000 		call write_to_EEPROM
 6874               	.LM893:
 6875 2034 85E0      		ldi r24,lo8(5)
 6876 2036 90E0      		ldi r25,hi8(5)
 6877 2038 63E1      		ldi r22,lo8(19)
 6878 203a 0E94 0000 		call write_to_EEPROM
 6879               	.LM894:
 6880 203e 00D0      		rcall .
 6881 2040 80E0      		ldi r24,lo8(.LC34)
 6882 2042 90E0      		ldi r25,hi8(.LC34)
 6883 2044 EDB7      		in r30,__SP_L__
 6884 2046 FEB7      		in r31,__SP_H__
 6885 2048 9283      		std Z+2,r25
 6886 204a 8183      		std Z+1,r24
 6887 204c 0E94 0000 		call printf
 6888               	.LM895:
 6889 2050 0F90      		pop __tmp_reg__
 6890 2052 0F90      		pop __tmp_reg__
 6891 2054 82E3      		ldi r24,lo8(50)
 6892 2056 90E0      		ldi r25,hi8(50)
 6893 2058 0E94 0000 		call delay_ms
 6894               	.LM896:
 6895 205c 83E3      		ldi r24,lo8(51)
 6896 205e 90E0      		ldi r25,hi8(51)
 6897 2060 0E94 0000 		call UART_Init
 6898               	.L629:
 6899 2064 00C0      		rjmp .L629
 6900               	.L628:
 6901               	.LM897:
 6902 2066 1433      		cpi r17,lo8(52)
 6903 2068 01F4      		brne .L630
 6904               	.LM898:
 6905 206a 82E0      		ldi r24,lo8(2)
 6906 206c 90E0      		ldi r25,hi8(2)
 6907 206e 63E6      		ldi r22,lo8(99)
 6908 2070 0E94 0000 		call write_to_EEPROM
 6909               	.LM899:
 6910 2074 83E0      		ldi r24,lo8(3)
 6911 2076 90E0      		ldi r25,hi8(3)
 6912 2078 60E0      		ldi r22,lo8(0)
 6913 207a 0E94 0000 		call write_to_EEPROM
 6914               	.LM900:
 6915 207e 84E0      		ldi r24,lo8(4)
 6916 2080 90E0      		ldi r25,hi8(4)
 6917 2082 60E0      		ldi r22,lo8(0)
 6918 2084 0E94 0000 		call write_to_EEPROM
 6919               	.LM901:
 6920 2088 85E0      		ldi r24,lo8(5)
 6921 208a 90E0      		ldi r25,hi8(5)
 6922 208c 60E0      		ldi r22,lo8(0)
 6923 208e 0E94 0000 		call write_to_EEPROM
 6924               	.LM902:
 6925 2092 87E0      		ldi r24,lo8(7)
 6926 2094 90E0      		ldi r25,hi8(7)
 6927 2096 60E0      		ldi r22,lo8(0)
 6928 2098 0E94 0000 		call write_to_EEPROM
 6929               	.LM903:
 6930 209c 86E0      		ldi r24,lo8(6)
 6931 209e 90E0      		ldi r25,hi8(6)
 6932 20a0 66E2      		ldi r22,lo8(38)
 6933 20a2 0E94 0000 		call write_to_EEPROM
 6934               	.LM904:
 6935 20a6 00D0      		rcall .
 6936 20a8 80E0      		ldi r24,lo8(.LC35)
 6937 20aa 90E0      		ldi r25,hi8(.LC35)
 6938 20ac EDB7      		in r30,__SP_L__
 6939 20ae FEB7      		in r31,__SP_H__
 6940 20b0 9283      		std Z+2,r25
 6941 20b2 8183      		std Z+1,r24
 6942 20b4 0E94 0000 		call printf
 6943               	.LM905:
 6944 20b8 0F90      		pop __tmp_reg__
 6945 20ba 0F90      		pop __tmp_reg__
 6946 20bc 82E3      		ldi r24,lo8(50)
 6947 20be 90E0      		ldi r25,hi8(50)
 6948 20c0 0E94 0000 		call delay_ms
 6949               	.LM906:
 6950 20c4 89E1      		ldi r24,lo8(25)
 6951 20c6 90E0      		ldi r25,hi8(25)
 6952 20c8 0E94 0000 		call UART_Init
 6953               	.L631:
 6954 20cc 00C0      		rjmp .L631
 6955               	.L630:
 6956               	.LM907:
 6957 20ce 1533      		cpi r17,lo8(53)
 6958 20d0 01F4      		brne .L632
 6959               	.LM908:
 6960 20d2 82E0      		ldi r24,lo8(2)
 6961 20d4 90E0      		ldi r25,hi8(2)
 6962 20d6 63E6      		ldi r22,lo8(99)
 6963 20d8 0E94 0000 		call write_to_EEPROM
 6964               	.LM909:
 6965 20dc 83E0      		ldi r24,lo8(3)
 6966 20de 90E0      		ldi r25,hi8(3)
 6967 20e0 60E0      		ldi r22,lo8(0)
 6968 20e2 0E94 0000 		call write_to_EEPROM
 6969               	.LM910:
 6970 20e6 84E0      		ldi r24,lo8(4)
 6971 20e8 90E0      		ldi r25,hi8(4)
 6972 20ea 60E0      		ldi r22,lo8(0)
 6973 20ec 0E94 0000 		call write_to_EEPROM
 6974               	.LM911:
 6975 20f0 85E0      		ldi r24,lo8(5)
 6976 20f2 90E0      		ldi r25,hi8(5)
 6977 20f4 60E0      		ldi r22,lo8(0)
 6978 20f6 0E94 0000 		call write_to_EEPROM
 6979               	.LM912:
 6980 20fa 86E0      		ldi r24,lo8(6)
 6981 20fc 90E0      		ldi r25,hi8(6)
 6982 20fe 60E0      		ldi r22,lo8(0)
 6983 2100 0E94 0000 		call write_to_EEPROM
 6984               	.LM913:
 6985 2104 87E0      		ldi r24,lo8(7)
 6986 2106 90E0      		ldi r25,hi8(7)
 6987 2108 69E3      		ldi r22,lo8(57)
 6988 210a 0E94 0000 		call write_to_EEPROM
 6989               	.LM914:
 6990 210e 00D0      		rcall .
 6991 2110 80E0      		ldi r24,lo8(.LC36)
 6992 2112 90E0      		ldi r25,hi8(.LC36)
 6993 2114 EDB7      		in r30,__SP_L__
 6994 2116 FEB7      		in r31,__SP_H__
 6995 2118 9283      		std Z+2,r25
 6996 211a 8183      		std Z+1,r24
 6997 211c 0E94 0000 		call printf
 6998               	.LM915:
 6999 2120 0F90      		pop __tmp_reg__
 7000 2122 0F90      		pop __tmp_reg__
 7001 2124 82E3      		ldi r24,lo8(50)
 7002 2126 90E0      		ldi r25,hi8(50)
 7003 2128 0E94 0000 		call delay_ms
 7004               	.LM916:
 7005 212c 80E1      		ldi r24,lo8(16)
 7006 212e 90E0      		ldi r25,hi8(16)
 7007 2130 0E94 0000 		call UART_Init
 7008               	.L633:
 7009 2134 00C0      		rjmp .L633
 7010               	.L632:
 7011               	.LM917:
 7012 2136 1153      		subi r17,lo8(-(-49))
 7013 2138 1530      		cpi r17,lo8(5)
 7014 213a 00F4      		brsh .+2
 7015 213c 00C0      		rjmp .L637
 7016 213e 0E94 0000 		call config_menu
 7017 2142 00C0      		rjmp .L637
 7018               	.LFE17:
 7020               	.global	auto_raw
 7022               	auto_raw:
 7023               	.LFB16:
 7024               	.LM918:
 7025 2144 CF92      		push r12
 7026 2146 DF92      		push r13
 7027 2148 EF92      		push r14
 7028 214a FF92      		push r15
 7029 214c 0F93      		push r16
 7030 214e 1F93      		push r17
 7031 2150 CF93      		push r28
 7032 2152 DF93      		push r29
 7033               	/* prologue: function */
 7034               	/* frame size = 0 */
 7035               	.LM919:
 7036 2154 00E0      		ldi r16,lo8(0)
 7037 2156 10E0      		ldi r17,hi8(0)
 7038               	.LVL420:
 7039               	.LM920:
 7040 2158 C0E0      		ldi r28,lo8(.LC16)
 7041 215a D0E0      		ldi r29,hi8(.LC16)
 7042               	.LM921:
 7043 215c 60E0      		ldi r22,lo8(.LC17)
 7044 215e C62E      		mov r12,r22
 7045 2160 60E0      		ldi r22,hi8(.LC17)
 7046 2162 D62E      		mov r13,r22
 7047               	.LM922:
 7048 2164 50E0      		ldi r21,lo8(.LC18)
 7049 2166 E52E      		mov r14,r21
 7050 2168 50E0      		ldi r21,hi8(.LC18)
 7051 216a F52E      		mov r15,r21
 7052 216c 00C0      		rjmp .L647
 7053               	.L641:
 7054               	.LM923:
 7055 216e 84E2      		ldi r24,lo8(36)
 7056 2170 90E0      		ldi r25,hi8(36)
 7057 2172 0E94 0000 		call putchar
 7058               	.LM924:
 7059 2176 0E94 0000 		call x_accel
 7060 217a 00D0      		rcall .
 7061 217c 00D0      		rcall .
 7062 217e EDB7      		in r30,__SP_L__
 7063 2180 FEB7      		in r31,__SP_H__
 7064 2182 D283      		std Z+2,r29
 7065 2184 C183      		std Z+1,r28
 7066 2186 9483      		std Z+4,r25
 7067 2188 8383      		std Z+3,r24
 7068 218a 0E94 0000 		call printf
 7069               	.LM925:
 7070 218e 0F90      		pop __tmp_reg__
 7071 2190 0F90      		pop __tmp_reg__
 7072 2192 0F90      		pop __tmp_reg__
 7073 2194 0F90      		pop __tmp_reg__
 7074 2196 0E94 0000 		call y_accel
 7075 219a 00D0      		rcall .
 7076 219c 00D0      		rcall .
 7077 219e EDB7      		in r30,__SP_L__
 7078 21a0 FEB7      		in r31,__SP_H__
 7079 21a2 D283      		std Z+2,r29
 7080 21a4 C183      		std Z+1,r28
 7081 21a6 9483      		std Z+4,r25
 7082 21a8 8383      		std Z+3,r24
 7083 21aa 0E94 0000 		call printf
 7084               	.LM926:
 7085 21ae 0F90      		pop __tmp_reg__
 7086 21b0 0F90      		pop __tmp_reg__
 7087 21b2 0F90      		pop __tmp_reg__
 7088 21b4 0F90      		pop __tmp_reg__
 7089 21b6 0E94 0000 		call z_accel
 7090 21ba 00D0      		rcall .
 7091 21bc 00D0      		rcall .
 7092 21be EDB7      		in r30,__SP_L__
 7093 21c0 FEB7      		in r31,__SP_H__
 7094 21c2 D283      		std Z+2,r29
 7095 21c4 C183      		std Z+1,r28
 7096 21c6 9483      		std Z+4,r25
 7097 21c8 8383      		std Z+3,r24
 7098 21ca 0E94 0000 		call printf
 7099               	.LM927:
 7100 21ce 0F90      		pop __tmp_reg__
 7101 21d0 0F90      		pop __tmp_reg__
 7102 21d2 0F90      		pop __tmp_reg__
 7103 21d4 0F90      		pop __tmp_reg__
 7104 21d6 0E94 0000 		call x_gyro
 7105 21da 00D0      		rcall .
 7106 21dc 00D0      		rcall .
 7107 21de EDB7      		in r30,__SP_L__
 7108 21e0 FEB7      		in r31,__SP_H__
 7109 21e2 D283      		std Z+2,r29
 7110 21e4 C183      		std Z+1,r28
 7111 21e6 9483      		std Z+4,r25
 7112 21e8 8383      		std Z+3,r24
 7113 21ea 0E94 0000 		call printf
 7114               	.LM928:
 7115 21ee 0F90      		pop __tmp_reg__
 7116 21f0 0F90      		pop __tmp_reg__
 7117 21f2 0F90      		pop __tmp_reg__
 7118 21f4 0F90      		pop __tmp_reg__
 7119 21f6 0E94 0000 		call y_gyro
 7120 21fa 00D0      		rcall .
 7121 21fc 00D0      		rcall .
 7122 21fe EDB7      		in r30,__SP_L__
 7123 2200 FEB7      		in r31,__SP_H__
 7124 2202 D283      		std Z+2,r29
 7125 2204 C183      		std Z+1,r28
 7126 2206 9483      		std Z+4,r25
 7127 2208 8383      		std Z+3,r24
 7128 220a 0E94 0000 		call printf
 7129               	.LM929:
 7130 220e 0F90      		pop __tmp_reg__
 7131 2210 0F90      		pop __tmp_reg__
 7132 2212 0F90      		pop __tmp_reg__
 7133 2214 0F90      		pop __tmp_reg__
 7134 2216 0E94 0000 		call z_gyro
 7135 221a 00D0      		rcall .
 7136 221c 00D0      		rcall .
 7137 221e EDB7      		in r30,__SP_L__
 7138 2220 FEB7      		in r31,__SP_H__
 7139 2222 D283      		std Z+2,r29
 7140 2224 C183      		std Z+1,r28
 7141 2226 9483      		std Z+4,r25
 7142 2228 8383      		std Z+3,r24
 7143 222a 0E94 0000 		call printf
 7144               	.LM930:
 7145 222e C801      		movw r24,r16
 7146 2230 64E1      		ldi r22,lo8(20)
 7147 2232 70E0      		ldi r23,hi8(20)
 7148 2234 0E94 0000 		call __udivmodhi4
 7149 2238 0F90      		pop __tmp_reg__
 7150 223a 0F90      		pop __tmp_reg__
 7151 223c 0F90      		pop __tmp_reg__
 7152 223e 0F90      		pop __tmp_reg__
 7153 2240 892B      		or r24,r25
 7154 2242 01F4      		brne .L640
 7155               	.LM931:
 7156 2244 0E94 0000 		call magnetometer
 7157               	.L640:
 7158               	.LM932:
 7159 2248 0F5F      		subi r16,lo8(-(1))
 7160 224a 1F4F      		sbci r17,hi8(-(1))
 7161               	.LM933:
 7162 224c 00D0      		rcall .
 7163 224e 00D0      		rcall .
 7164 2250 EDB7      		in r30,__SP_L__
 7165 2252 FEB7      		in r31,__SP_H__
 7166 2254 D283      		std Z+2,r29
 7167 2256 C183      		std Z+1,r28
 7168 2258 8091 0000 		lds r24,x_mag
 7169 225c 9091 0000 		lds r25,(x_mag)+1
 7170 2260 9483      		std Z+4,r25
 7171 2262 8383      		std Z+3,r24
 7172 2264 0E94 0000 		call printf
 7173               	.LM934:
 7174 2268 EDB7      		in r30,__SP_L__
 7175 226a FEB7      		in r31,__SP_H__
 7176 226c D283      		std Z+2,r29
 7177 226e C183      		std Z+1,r28
 7178 2270 8091 0000 		lds r24,y_mag
 7179 2274 9091 0000 		lds r25,(y_mag)+1
 7180 2278 9483      		std Z+4,r25
 7181 227a 8383      		std Z+3,r24
 7182 227c 0E94 0000 		call printf
 7183               	.LM935:
 7184 2280 EDB7      		in r30,__SP_L__
 7185 2282 FEB7      		in r31,__SP_H__
 7186 2284 D282      		std Z+2,r13
 7187 2286 C182      		std Z+1,r12
 7188 2288 8091 0000 		lds r24,z_mag
 7189 228c 9091 0000 		lds r25,(z_mag)+1
 7190 2290 9483      		std Z+4,r25
 7191 2292 8383      		std Z+3,r24
 7192 2294 0E94 0000 		call printf
 7193               	.LM936:
 7194 2298 0F90      		pop __tmp_reg__
 7195 229a 0F90      		pop __tmp_reg__
 7196 229c EDB7      		in r30,__SP_L__
 7197 229e FEB7      		in r31,__SP_H__
 7198 22a0 F282      		std Z+2,r15
 7199 22a2 E182      		std Z+1,r14
 7200 22a4 0E94 0000 		call printf
 7201               	.LM937:
 7202 22a8 0F90      		pop __tmp_reg__
 7203 22aa 0F90      		pop __tmp_reg__
 7204 22ac 84E1      		ldi r24,lo8(20)
 7205 22ae 90E0      		ldi r25,hi8(20)
 7206 22b0 0E94 0000 		call delay_ms
 7207               	.L647:
 7208               	.LM938:
 7209 22b4 8091 C000 		lds r24,192
 7210 22b8 87FF      		sbrs r24,7
 7211 22ba 00C0      		rjmp .L641
 7212               	.L645:
 7213               	.LBB1114:
 7214               	.LBB1115:
 7215               	.LM939:
 7216 22bc 8091 C000 		lds r24,192
 7217 22c0 87FF      		sbrs r24,7
 7218 22c2 00C0      		rjmp .L645
 7219               	.LM940:
 7220 22c4 8091 C600 		lds r24,198
 7221               	.LBE1115:
 7222               	.LBE1114:
 7223               	.LM941:
 7224 22c8 8A31      		cpi r24,lo8(26)
 7225 22ca 01F4      		brne .L648
 7226               	.L643:
 7227               	.LM942:
 7228 22cc 81E0      		ldi r24,lo8(1)
 7229 22ce 90E0      		ldi r25,hi8(1)
 7230 22d0 60E0      		ldi r22,lo8(0)
 7231 22d2 0E94 0000 		call write_to_EEPROM
 7232               	.LM943:
 7233 22d6 0E94 0000 		call config_menu
 7234               	.L648:
 7235 22da 00E0      		ldi r16,lo8(0)
 7236 22dc 10E0      		ldi r17,hi8(0)
 7237 22de 00C0      		rjmp .L647
 7238               	.LFE16:
 7240               	.global	config_read
 7242               	config_read:
 7243               	.LFB20:
 7244               	.LM944:
 7245 22e0 1F93      		push r17
 7246               	/* prologue: function */
 7247               	/* frame size = 0 */
 7248               	.L650:
 7249               	.LBB1116:
 7250               	.LBB1117:
 7251               	.LM945:
 7252 22e2 F999      		sbic 63-32,1
 7253 22e4 00C0      		rjmp .L650
 7254               	.LM946:
 7255 22e6 81E0      		ldi r24,lo8(1)
 7256 22e8 90E0      		ldi r25,hi8(1)
 7257 22ea 92BD      		out (65)+1-32,r25
 7258 22ec 81BD      		out 65-32,r24
 7259               	.LM947:
 7260 22ee F89A      		sbi 63-32,0
 7261               	.LM948:
 7262 22f0 80B5      		in r24,64-32
 7263               	.LBE1117:
 7264               	.LBE1116:
 7265               	.LM949:
 7266 22f2 8033      		cpi r24,lo8(48)
 7267 22f4 01F4      		brne .+2
 7268 22f6 00C0      		rjmp .L651
 7269               	.LVL421:
 7270               	.L679:
 7271               	.LBB1118:
 7272               	.LBB1119:
 7273               	.LM950:
 7274 22f8 8091 C000 		lds r24,192
 7275 22fc 87FF      		sbrs r24,7
 7276 22fe 00C0      		rjmp .L679
 7277               	.LM951:
 7278 2300 1091 C600 		lds r17,198
 7279               	.LBE1119:
 7280               	.LBE1118:
 7281               	.LM952:
 7282 2304 6091 0000 		lds r22,__iob+2
 7283 2308 7091 0000 		lds r23,(__iob+2)+1
 7284 230c 8AE0      		ldi r24,lo8(10)
 7285 230e 90E0      		ldi r25,hi8(10)
 7286 2310 0E94 0000 		call fputc
 7287               	.LM953:
 7288 2314 6091 0000 		lds r22,__iob+2
 7289 2318 7091 0000 		lds r23,(__iob+2)+1
 7290 231c 8DE0      		ldi r24,lo8(13)
 7291 231e 90E0      		ldi r25,hi8(13)
 7292 2320 0E94 0000 		call fputc
 7293               	.LM954:
 7294 2324 1133      		cpi r17,lo8(49)
 7295 2326 01F4      		brne .L680
 7296 2328 00C0      		rjmp .L675
 7297               	.L655:
 7298               	.LM955:
 7299 232a 0E94 0000 		call print_adxl345
 7300               	.L675:
 7301 232e 8091 C000 		lds r24,192
 7302 2332 87FF      		sbrs r24,7
 7303 2334 00C0      		rjmp .L655
 7304               	.LM956:
 7305 2336 0E94 0000 		call config_menu
 7306 233a 00C0      		rjmp .L656
 7307               	.L680:
 7308               	.LM957:
 7309 233c 1233      		cpi r17,lo8(50)
 7310 233e 01F4      		brne .L681
 7311 2340 00C0      		rjmp .L676
 7312               	.L659:
 7313               	.LM958:
 7314 2342 0E94 0000 		call print_hmc5883
 7315               	.LM959:
 7316 2346 8EE5      		ldi r24,lo8(350)
 7317 2348 91E0      		ldi r25,hi8(350)
 7318 234a 0E94 0000 		call delay_ms
 7319               	.L676:
 7320               	.LM960:
 7321 234e 8091 C000 		lds r24,192
 7322 2352 87FF      		sbrs r24,7
 7323 2354 00C0      		rjmp .L659
 7324               	.LM961:
 7325 2356 0E94 0000 		call config_menu
 7326 235a 00C0      		rjmp .L660
 7327               	.L681:
 7328               	.LM962:
 7329 235c 1333      		cpi r17,lo8(51)
 7330 235e 01F0      		breq .L677
 7331 2360 00C0      		rjmp .L656
 7332               	.L662:
 7333               	.LM963:
 7334 2362 0E94 0000 		call print_itg3200
 7335               	.L677:
 7336 2366 8091 C000 		lds r24,192
 7337 236a 87FF      		sbrs r24,7
 7338 236c 00C0      		rjmp .L662
 7339               	.LM964:
 7340 236e 0E94 0000 		call config_menu
 7341 2372 00C0      		rjmp .L663
 7342               	.L656:
 7343               	.LM965:
 7344 2374 1433      		cpi r17,lo8(52)
 7345 2376 01F0      		breq .L678
 7346 2378 00C0      		rjmp .L660
 7347               	.L665:
 7348               	.LM966:
 7349 237a 0E94 0000 		call raw
 7350               	.L678:
 7351 237e 8091 C000 		lds r24,192
 7352 2382 87FF      		sbrs r24,7
 7353 2384 00C0      		rjmp .L665
 7354               	.LM967:
 7355 2386 0E94 0000 		call config_menu
 7356 238a 00C0      		rjmp .L666
 7357               	.L660:
 7358               	.LM968:
 7359 238c 1533      		cpi r17,lo8(53)
 7360 238e 01F4      		brne .L663
 7361               	.LM969:
 7362 2390 0E94 0000 		call baud_menu
 7363 2394 00C0      		rjmp .L682
 7364               	.L663:
 7365               	.LM970:
 7366 2396 1031      		cpi r17,lo8(16)
 7367 2398 01F4      		brne .L666
 7368               	.LM971:
 7369 239a 0E94 0000 		call self_test
 7370 239e 00C0      		rjmp .L679
 7371               	.L666:
 7372               	.LM972:
 7373 23a0 1A31      		cpi r17,lo8(26)
 7374 23a2 01F4      		brne .L668
 7375               	.LM973:
 7376 23a4 81E0      		ldi r24,lo8(1)
 7377 23a6 90E0      		ldi r25,hi8(1)
 7378 23a8 60E3      		ldi r22,lo8(48)
 7379 23aa 0E94 0000 		call write_to_EEPROM
 7380               	.LM974:
 7381 23ae 0E94 0000 		call auto_raw
 7382 23b2 00C0      		rjmp .L679
 7383               	.L668:
 7384               	.LM975:
 7385 23b4 1F33      		cpi r17,lo8(63)
 7386 23b6 01F4      		brne .L667
 7387               	.LM976:
 7388 23b8 0E94 0000 		call help
 7389               	.L669:
 7390               	.LM977:
 7391 23bc 8091 C000 		lds r24,192
 7392 23c0 87FF      		sbrs r24,7
 7393 23c2 00C0      		rjmp .L669
 7394               	.L682:
 7395               	.LM978:
 7396 23c4 0E94 0000 		call config_menu
 7397 23c8 00C0      		rjmp .L679
 7398               	.L667:
 7399               	.LM979:
 7400 23ca 1F3F      		cpi r17,lo8(-1)
 7401 23cc 01F0      		breq .+2
 7402 23ce 00C0      		rjmp .L679
 7403 23d0 0E94 0000 		call config_read
 7404 23d4 00C0      		rjmp .L679
 7405               	.LVL422:
 7406               	.L651:
 7407               	.LM980:
 7408 23d6 0E94 0000 		call auto_raw
 7409               	/* epilogue start */
 7410               	.LM981:
 7411 23da 1F91      		pop r17
 7412 23dc 0895      		ret
 7413               	.LFE20:
 7415               	.global	main
 7417               	main:
 7418               	.LFB13:
 7419               	.LM982:
 7420 23de CF93      		push r28
 7421 23e0 DF93      		push r29
 7422               	/* prologue: function */
 7423               	/* frame size = 0 */
 7424               	.LM983:
 7425 23e2 0E94 0000 		call init
 7426               	.LM984:
 7427 23e6 0E94 0000 		call self_test
 7428               	.LBB1120:
 7429               	.LBB1121:
 7430               	.LM985:
 7431 23ea C1E0      		ldi r28,lo8(1)
 7432 23ec D0E0      		ldi r29,hi8(1)
 7433               	.L689:
 7434               	.LM986:
 7435 23ee F999      		sbic 63-32,1
 7436 23f0 00C0      		rjmp .L689
 7437               	.LM987:
 7438 23f2 D2BD      		out (65)+1-32,r29
 7439 23f4 C1BD      		out 65-32,r28
 7440               	.LM988:
 7441 23f6 F89A      		sbi 63-32,0
 7442               	.LM989:
 7443 23f8 80B5      		in r24,64-32
 7444               	.LBE1121:
 7445               	.LBE1120:
 7446               	.LM990:
 7447 23fa 8033      		cpi r24,lo8(48)
 7448 23fc 01F4      		brne .L685
 7449 23fe 0E94 0000 		call config_read
 7450 2402 00C0      		rjmp .L689
 7451               	.L685:
 7452               	.LM991:
 7453 2404 0E94 0000 		call config_menu
 7454 2408 00C0      		rjmp .L689
 7455               	.LFE13:
 7457               	.global	wlcm_str
 7458               		.section	.progmem.data,"a",@progbits
 7461               	wlcm_str:
 7462 0000 0A0A 0D39 		.string	"\n\n\r9DOF IMU Firmware v23 \n\r=========================="
 7462      444F 4620 
 7462      494D 5520 
 7462      4669 726D 
 7462      7761 7265 
 7463               	.global	accel
 7466               	accel:
 7467 0036 0A0D 5B31 		.string	"\n\r[1]Accelerometer: ADXL345 \n\r"
 7467      5D41 6363 
 7467      656C 6572 
 7467      6F6D 6574 
 7467      6572 3A20 
 7468               	.global	mag
 7471               	mag:
 7472 0055 5B32 5D4D 		.string	"[2]Magnetometer: HMC5883 \n\r"
 7472      6167 6E65 
 7472      746F 6D65 
 7472      7465 723A 
 7472      2048 4D43 
 7473               	.global	gyro
 7476               	gyro:
 7477 0071 5B33 5D47 		.string	"[3]Gyroscope: ITG-3200 \n\r"
 7477      7972 6F73 
 7477      636F 7065 
 7477      3A20 4954 
 7477      472D 3332 
 7478               	.global	raw_out
 7481               	raw_out:
 7482 008b 5B34 5D52 		.string	"[4]Raw Output\n\r"
 7482      6177 204F 
 7482      7574 7075 
 7482      740A 0D00 
 7483               	.global	baud_change
 7486               	baud_change:
 7487 009b 5B35 5D43 		.string	"[5]Change Baud Rate: "
 7487      6861 6E67 
 7487      6520 4261 
 7487      7564 2052 
 7487      6174 653A 
 7488               	.global	autorun
 7491               	autorun:
 7492 00b1 5B43 7472 		.string	"[Ctrl+z]Toggle Autorun\n\r"
 7492      6C2B 7A5D 
 7492      546F 6767 
 7492      6C65 2041 
 7492      7574 6F72 
 7493               	.global	help_
 7496               	help_:
 7497 00ca 5B3F 5D48 		.string	"[?]Help\n\r"
 7497      656C 700A 
 7497      0D00 
 7498               		.data
 7501               	mystdout:
 7502 0496 0000 00   		.skip 3,0
 7503 0499 02        		.byte	2
 7504 049a 0000 0000 		.skip 4,0
 7505 049e 0000      		.word	gs(uart_putchar)
 7506 04a0 0000      		.word	0
 7507 04a2 0000      		.word	0
 7508               		.comm x_mag,2,1
 7509               		.comm y_mag,2,1
 7510               		.comm z_mag,2,1
 7511               		.comm baud,4,1
 7832               	.Letext0:
DEFINED SYMBOLS
                            *ABS*:00000000 main.c
C:\Users\KADE~1.JEN\AppData\Local\Temp/ccZcTHBH.s:2      *ABS*:0000003f __SREG__
C:\Users\KADE~1.JEN\AppData\Local\Temp/ccZcTHBH.s:3      *ABS*:0000003e __SP_H__
C:\Users\KADE~1.JEN\AppData\Local\Temp/ccZcTHBH.s:4      *ABS*:0000003d __SP_L__
C:\Users\KADE~1.JEN\AppData\Local\Temp/ccZcTHBH.s:5      *ABS*:00000034 __CCP__
C:\Users\KADE~1.JEN\AppData\Local\Temp/ccZcTHBH.s:6      *ABS*:00000000 __tmp_reg__
C:\Users\KADE~1.JEN\AppData\Local\Temp/ccZcTHBH.s:7      *ABS*:00000001 __zero_reg__
C:\Users\KADE~1.JEN\AppData\Local\Temp/ccZcTHBH.s:18     .text:00000000 i2cSetBitrate
C:\Users\KADE~1.JEN\AppData\Local\Temp/ccZcTHBH.s:64     .text:00000034 i2cInit
C:\Users\KADE~1.JEN\AppData\Local\Temp/ccZcTHBH.s:86     .text:00000048 i2cSendStart
C:\Users\KADE~1.JEN\AppData\Local\Temp/ccZcTHBH.s:103    .text:00000052 i2cSendStop
C:\Users\KADE~1.JEN\AppData\Local\Temp/ccZcTHBH.s:118    .text:0000005a i2cWaitForComplete
C:\Users\KADE~1.JEN\AppData\Local\Temp/ccZcTHBH.s:146    .text:00000074 i2cReceiveByte
C:\Users\KADE~1.JEN\AppData\Local\Temp/ccZcTHBH.s:175    .text:00000090 i2cGetReceivedByte
C:\Users\KADE~1.JEN\AppData\Local\Temp/ccZcTHBH.s:189    .text:00000096 i2cGetStatus
C:\Users\KADE~1.JEN\AppData\Local\Temp/ccZcTHBH.s:203    .text:0000009c delay_ms
C:\Users\KADE~1.JEN\AppData\Local\Temp/ccZcTHBH.s:253    .text:000000ba i2cSendByte
C:\Users\KADE~1.JEN\AppData\Local\Temp/ccZcTHBH.s:282    .text:000000d6 accelerometer_init
C:\Users\KADE~1.JEN\AppData\Local\Temp/ccZcTHBH.s:518    .text:000001d8 gyro_init
C:\Users\KADE~1.JEN\AppData\Local\Temp/ccZcTHBH.s:876    .text:0000036a magnetometer_init
C:\Users\KADE~1.JEN\AppData\Local\Temp/ccZcTHBH.s:1224   .text:000004ec magnetometer
                            *COM*:00000002 x_mag
                            *COM*:00000002 z_mag
                            *COM*:00000002 y_mag
C:\Users\KADE~1.JEN\AppData\Local\Temp/ccZcTHBH.s:1684   .text:000006ea x_gyro
C:\Users\KADE~1.JEN\AppData\Local\Temp/ccZcTHBH.s:2075   .text:000008bc y_gyro
C:\Users\KADE~1.JEN\AppData\Local\Temp/ccZcTHBH.s:2466   .text:00000a8e z_gyro
C:\Users\KADE~1.JEN\AppData\Local\Temp/ccZcTHBH.s:2857   .text:00000c60 x_accel
C:\Users\KADE~1.JEN\AppData\Local\Temp/ccZcTHBH.s:3401   .text:00000eac y_accel
C:\Users\KADE~1.JEN\AppData\Local\Temp/ccZcTHBH.s:3945   .text:000010f8 z_accel
C:\Users\KADE~1.JEN\AppData\Local\Temp/ccZcTHBH.s:4489   .text:00001344 UART_Init
C:\Users\KADE~1.JEN\AppData\Local\Temp/ccZcTHBH.s:7501   .data:00000496 mystdout
C:\Users\KADE~1.JEN\AppData\Local\Temp/ccZcTHBH.s:4526   .text:00001374 check_baud
                            *COM*:00000004 baud
C:\Users\KADE~1.JEN\AppData\Local\Temp/ccZcTHBH.s:4738   .text:000014b2 init
C:\Users\KADE~1.JEN\AppData\Local\Temp/ccZcTHBH.s:4774   .text:000014da uart_getchar
C:\Users\KADE~1.JEN\AppData\Local\Temp/ccZcTHBH.s:4792   .text:000014e8 uart_putchar
C:\Users\KADE~1.JEN\AppData\Local\Temp/ccZcTHBH.s:4825   .text:0000150a write_to_EEPROM
C:\Users\KADE~1.JEN\AppData\Local\Temp/ccZcTHBH.s:4851   .text:0000151a read_from_EEPROM
C:\Users\KADE~1.JEN\AppData\Local\Temp/ccZcTHBH.s:4884   .text:00001528 print_itg3200
C:\Users\KADE~1.JEN\AppData\Local\Temp/ccZcTHBH.s:4959   .text:0000159e print_hmc5883
C:\Users\KADE~1.JEN\AppData\Local\Temp/ccZcTHBH.s:5043   .text:00001604 help
C:\Users\KADE~1.JEN\AppData\Local\Temp/ccZcTHBH.s:5134   .text:0000169c print_adxl345
C:\Users\KADE~1.JEN\AppData\Local\Temp/ccZcTHBH.s:5209   .text:00001712 raw
C:\Users\KADE~1.JEN\AppData\Local\Temp/ccZcTHBH.s:5377   .text:0000185c config_menu
C:\Users\KADE~1.JEN\AppData\Local\Temp/ccZcTHBH.s:7461   .progmem.data:00000000 wlcm_str
C:\Users\KADE~1.JEN\AppData\Local\Temp/ccZcTHBH.s:7466   .progmem.data:00000036 accel
C:\Users\KADE~1.JEN\AppData\Local\Temp/ccZcTHBH.s:7471   .progmem.data:00000055 mag
C:\Users\KADE~1.JEN\AppData\Local\Temp/ccZcTHBH.s:7476   .progmem.data:00000071 gyro
C:\Users\KADE~1.JEN\AppData\Local\Temp/ccZcTHBH.s:7481   .progmem.data:0000008b raw_out
C:\Users\KADE~1.JEN\AppData\Local\Temp/ccZcTHBH.s:7486   .progmem.data:0000009b baud_change
C:\Users\KADE~1.JEN\AppData\Local\Temp/ccZcTHBH.s:7491   .progmem.data:000000b1 autorun
C:\Users\KADE~1.JEN\AppData\Local\Temp/ccZcTHBH.s:7496   .progmem.data:000000ca help_
C:\Users\KADE~1.JEN\AppData\Local\Temp/ccZcTHBH.s:7242   .text:000022e0 config_read
C:\Users\KADE~1.JEN\AppData\Local\Temp/ccZcTHBH.s:5500   .text:00001928 self_test
C:\Users\KADE~1.JEN\AppData\Local\Temp/ccZcTHBH.s:6655   .text:00001e9a baud_menu
C:\Users\KADE~1.JEN\AppData\Local\Temp/ccZcTHBH.s:7022   .text:00002144 auto_raw
C:\Users\KADE~1.JEN\AppData\Local\Temp/ccZcTHBH.s:7417   .text:000023de main

UNDEFINED SYMBOLS
__udivmodhi4
__iob
printf
putchar
printf_P
fputc
__do_copy_data
__do_clear_bss
